###############################################################################
#
# IAR ELF Linker V7.50.1.10123/W32 for ARM                24/Oct/2024  18:34:07
# Copyright 2007-2015 IAR Systems AB.
#
#    Output file  =  
#        D:\VCU_Projects\deVCU_Rev2\JayemCodeReleaseRev2.2\JayemCodeRelease\01_Software\Flash_Debug\Exe\FordeMCDtest.out
#    Map file     =  
#        D:\VCU_Projects\deVCU_Rev2\JayemCodeReleaseRev2.2\JayemCodeRelease\01_Software\Flash_Debug\List\FordeMCDtest.map
#    Command line =  
#        D:\VCU_Projects\deVCU_Rev2\JayemCodeReleaseRev2.2\JayemCodeRelease\01_Software\Flash_Debug\Obj\app.o
#        D:\VCU_Projects\deVCU_Rev2\JayemCodeReleaseRev2.2\JayemCodeRelease\01_Software\Flash_Debug\Obj\app_diag.o
#        D:\VCU_Projects\deVCU_Rev2\JayemCodeReleaseRev2.2\JayemCodeRelease\01_Software\Flash_Debug\Obj\app_diag_generic_functions.o
#        D:\VCU_Projects\deVCU_Rev2\JayemCodeReleaseRev2.2\JayemCodeRelease\01_Software\Flash_Debug\Obj\app_diag_gf.o
#        D:\VCU_Projects\deVCU_Rev2\JayemCodeReleaseRev2.2\JayemCodeRelease\01_Software\Flash_Debug\Obj\app_FaultMgr.o
#        D:\VCU_Projects\deVCU_Rev2\JayemCodeReleaseRev2.2\JayemCodeRelease\01_Software\Flash_Debug\Obj\app_FaultMgr_cfg.o
#        D:\VCU_Projects\deVCU_Rev2\JayemCodeReleaseRev2.2\JayemCodeRelease\01_Software\Flash_Debug\Obj\app_Main100msMgr.o
#        D:\VCU_Projects\deVCU_Rev2\JayemCodeReleaseRev2.2\JayemCodeRelease\01_Software\Flash_Debug\Obj\app_Main100msMgr_capi.o
#        D:\VCU_Projects\deVCU_Rev2\JayemCodeReleaseRev2.2\JayemCodeRelease\01_Software\Flash_Debug\Obj\app_Main100msMgr_data.o
#        D:\VCU_Projects\deVCU_Rev2\JayemCodeReleaseRev2.2\JayemCodeRelease\01_Software\Flash_Debug\Obj\app_Main10msMgr.o
#        D:\VCU_Projects\deVCU_Rev2\JayemCodeReleaseRev2.2\JayemCodeRelease\01_Software\Flash_Debug\Obj\app_Main10msMgr_capi.o
#        D:\VCU_Projects\deVCU_Rev2\JayemCodeReleaseRev2.2\JayemCodeRelease\01_Software\Flash_Debug\Obj\app_Main10msMgr_data.o
#        D:\VCU_Projects\deVCU_Rev2\JayemCodeReleaseRev2.2\JayemCodeRelease\01_Software\Flash_Debug\Obj\app_Main1msMgr.o
#        D:\VCU_Projects\deVCU_Rev2\JayemCodeReleaseRev2.2\JayemCodeRelease\01_Software\Flash_Debug\Obj\app_Main1msMgr_capi.o
#        D:\VCU_Projects\deVCU_Rev2\JayemCodeReleaseRev2.2\JayemCodeRelease\01_Software\Flash_Debug\Obj\app_Main1msMgr_data.o
#        D:\VCU_Projects\deVCU_Rev2\JayemCodeReleaseRev2.2\JayemCodeRelease\01_Software\Flash_Debug\Obj\app_Main50msMgr.o
#        D:\VCU_Projects\deVCU_Rev2\JayemCodeReleaseRev2.2\JayemCodeRelease\01_Software\Flash_Debug\Obj\app_Main50msMgr_capi.o
#        D:\VCU_Projects\deVCU_Rev2\JayemCodeReleaseRev2.2\JayemCodeRelease\01_Software\Flash_Debug\Obj\app_Main50msMgr_data.o
#        D:\VCU_Projects\deVCU_Rev2\JayemCodeReleaseRev2.2\JayemCodeRelease\01_Software\Flash_Debug\Obj\can_datatype_ground.o
#        D:\VCU_Projects\deVCU_Rev2\JayemCodeReleaseRev2.2\JayemCodeRelease\01_Software\Flash_Debug\Obj\div_s32.o
#        D:\VCU_Projects\deVCU_Rev2\JayemCodeReleaseRev2.2\JayemCodeRelease\01_Software\Flash_Debug\Obj\Double2MultiWord.o
#        D:\VCU_Projects\deVCU_Rev2\JayemCodeReleaseRev2.2\JayemCodeRelease\01_Software\Flash_Debug\Obj\ecu.o
#        D:\VCU_Projects\deVCU_Rev2\JayemCodeReleaseRev2.2\JayemCodeRelease\01_Software\Flash_Debug\Obj\ecu_anlg.o
#        D:\VCU_Projects\deVCU_Rev2\JayemCodeReleaseRev2.2\JayemCodeRelease\01_Software\Flash_Debug\Obj\ecu_anlg_cfg.o
#        D:\VCU_Projects\deVCU_Rev2\JayemCodeReleaseRev2.2\JayemCodeRelease\01_Software\Flash_Debug\Obj\ecu_com.o
#        D:\VCU_Projects\deVCU_Rev2\JayemCodeReleaseRev2.2\JayemCodeRelease\01_Software\Flash_Debug\Obj\ecu_com_cfg.o
#        D:\VCU_Projects\deVCU_Rev2\JayemCodeReleaseRev2.2\JayemCodeRelease\01_Software\Flash_Debug\Obj\ecu_com_cfg_gen.o
#        D:\VCU_Projects\deVCU_Rev2\JayemCodeReleaseRev2.2\JayemCodeRelease\01_Software\Flash_Debug\Obj\ecu_diag.o
#        D:\VCU_Projects\deVCU_Rev2\JayemCodeReleaseRev2.2\JayemCodeRelease\01_Software\Flash_Debug\Obj\ecu_diag_cfg.o
#        D:\VCU_Projects\deVCU_Rev2\JayemCodeReleaseRev2.2\JayemCodeRelease\01_Software\Flash_Debug\Obj\ecu_io.o
#        D:\VCU_Projects\deVCU_Rev2\JayemCodeReleaseRev2.2\JayemCodeRelease\01_Software\Flash_Debug\Obj\ecu_io_cfg.o
#        D:\VCU_Projects\deVCU_Rev2\JayemCodeReleaseRev2.2\JayemCodeRelease\01_Software\Flash_Debug\Obj\ecu_mem.o
#        D:\VCU_Projects\deVCU_Rev2\JayemCodeReleaseRev2.2\JayemCodeRelease\01_Software\Flash_Debug\Obj\ecu_mem_cfg.o
#        D:\VCU_Projects\deVCU_Rev2\JayemCodeReleaseRev2.2\JayemCodeRelease\01_Software\Flash_Debug\Obj\ecu_serial.o
#        D:\VCU_Projects\deVCU_Rev2\JayemCodeReleaseRev2.2\JayemCodeRelease\01_Software\Flash_Debug\Obj\ecu_serial_cfg.o
#        D:\VCU_Projects\deVCU_Rev2\JayemCodeReleaseRev2.2\JayemCodeRelease\01_Software\Flash_Debug\Obj\ecu_system.o
#        D:\VCU_Projects\deVCU_Rev2\JayemCodeReleaseRev2.2\JayemCodeRelease\01_Software\Flash_Debug\Obj\ecu_system_cfg.o
#        D:\VCU_Projects\deVCU_Rev2\JayemCodeReleaseRev2.2\JayemCodeRelease\01_Software\Flash_Debug\Obj\ecu_txcp.o
#        D:\VCU_Projects\deVCU_Rev2\JayemCodeReleaseRev2.2\JayemCodeRelease\01_Software\Flash_Debug\Obj\ecu_txcp_cfg.o
#        D:\VCU_Projects\deVCU_Rev2\JayemCodeReleaseRev2.2\JayemCodeRelease\01_Software\Flash_Debug\Obj\ecu_wdg.o
#        D:\VCU_Projects\deVCU_Rev2\JayemCodeReleaseRev2.2\JayemCodeRelease\01_Software\Flash_Debug\Obj\ecu_wdg_cfg.o
#        D:\VCU_Projects\deVCU_Rev2\JayemCodeReleaseRev2.2\JayemCodeRelease\01_Software\Flash_Debug\Obj\Fapi_UserDefinedFunctions.o
#        D:\VCU_Projects\deVCU_Rev2\JayemCodeReleaseRev2.2\JayemCodeRelease\01_Software\Flash_Debug\Obj\lib_data.o
#        D:\VCU_Projects\deVCU_Rev2\JayemCodeReleaseRev2.2\JayemCodeRelease\01_Software\Flash_Debug\Obj\lib_delay.o
#        D:\VCU_Projects\deVCU_Rev2\JayemCodeReleaseRev2.2\JayemCodeRelease\01_Software\Flash_Debug\Obj\look1_binlcapw.o
#        D:\VCU_Projects\deVCU_Rev2\JayemCodeReleaseRev2.2\JayemCodeRelease\01_Software\Flash_Debug\Obj\look1_binlcpw.o
#        D:\VCU_Projects\deVCU_Rev2\JayemCodeReleaseRev2.2\JayemCodeRelease\01_Software\Flash_Debug\Obj\look1_binlxpw.o
#        D:\VCU_Projects\deVCU_Rev2\JayemCodeReleaseRev2.2\JayemCodeRelease\01_Software\Flash_Debug\Obj\look2_binlcapw.o
#        D:\VCU_Projects\deVCU_Rev2\JayemCodeReleaseRev2.2\JayemCodeRelease\01_Software\Flash_Debug\Obj\look2_binlxpw.o
#        D:\VCU_Projects\deVCU_Rev2\JayemCodeReleaseRev2.2\JayemCodeRelease\01_Software\Flash_Debug\Obj\low_level_init.o
#        D:\VCU_Projects\deVCU_Rev2\JayemCodeReleaseRev2.2\JayemCodeRelease\01_Software\Flash_Debug\Obj\main.o
#        D:\VCU_Projects\deVCU_Rev2\JayemCodeReleaseRev2.2\JayemCodeRelease\01_Software\Flash_Debug\Obj\MultiWordXor.o
#        D:\VCU_Projects\deVCU_Rev2\JayemCodeReleaseRev2.2\JayemCodeRelease\01_Software\Flash_Debug\Obj\os.o
#        D:\VCU_Projects\deVCU_Rev2\JayemCodeReleaseRev2.2\JayemCodeRelease\01_Software\Flash_Debug\Obj\os_cfg.o
#        D:\VCU_Projects\deVCU_Rev2\JayemCodeReleaseRev2.2\JayemCodeRelease\01_Software\Flash_Debug\Obj\os_tasks.o
#        D:\VCU_Projects\deVCU_Rev2\JayemCodeReleaseRev2.2\JayemCodeRelease\01_Software\Flash_Debug\Obj\rt_nonfinite.o
#        D:\VCU_Projects\deVCU_Rev2\JayemCodeReleaseRev2.2\JayemCodeRelease\01_Software\Flash_Debug\Obj\rt_powd_snf.o
#        D:\VCU_Projects\deVCU_Rev2\JayemCodeReleaseRev2.2\JayemCodeRelease\01_Software\Flash_Debug\Obj\rt_remd_snf.o
#        D:\VCU_Projects\deVCU_Rev2\JayemCodeReleaseRev2.2\JayemCodeRelease\01_Software\Flash_Debug\Obj\rt_roundd_snf.o
#        D:\VCU_Projects\deVCU_Rev2\JayemCodeReleaseRev2.2\JayemCodeRelease\01_Software\Flash_Debug\Obj\rte.o
#        D:\VCU_Projects\deVCU_Rev2\JayemCodeReleaseRev2.2\JayemCodeRelease\01_Software\Flash_Debug\Obj\rte_tasks.o
#        D:\VCU_Projects\deVCU_Rev2\JayemCodeReleaseRev2.2\JayemCodeRelease\01_Software\Flash_Debug\Obj\rtGetInf.o
#        D:\VCU_Projects\deVCU_Rev2\JayemCodeReleaseRev2.2\JayemCodeRelease\01_Software\Flash_Debug\Obj\rtGetNaN.o
#        D:\VCU_Projects\deVCU_Rev2\JayemCodeReleaseRev2.2\JayemCodeRelease\01_Software\Flash_Debug\Obj\tms570ls3137_cstartup.o
#        D:\VCU_Projects\deVCU_Rev2\JayemCodeReleaseRev2.2\JayemCodeRelease\01_Software\Flash_Debug\Obj\uc.o
#        D:\VCU_Projects\deVCU_Rev2\JayemCodeReleaseRev2.2\JayemCodeRelease\01_Software\Flash_Debug\Obj\uc_adc.o
#        D:\VCU_Projects\deVCU_Rev2\JayemCodeReleaseRev2.2\JayemCodeRelease\01_Software\Flash_Debug\Obj\uc_adc_cfg.o
#        D:\VCU_Projects\deVCU_Rev2\JayemCodeReleaseRev2.2\JayemCodeRelease\01_Software\Flash_Debug\Obj\uc_can.o
#        D:\VCU_Projects\deVCU_Rev2\JayemCodeReleaseRev2.2\JayemCodeRelease\01_Software\Flash_Debug\Obj\uc_can_cfg.o
#        D:\VCU_Projects\deVCU_Rev2\JayemCodeReleaseRev2.2\JayemCodeRelease\01_Software\Flash_Debug\Obj\uc_dio.o
#        D:\VCU_Projects\deVCU_Rev2\JayemCodeReleaseRev2.2\JayemCodeRelease\01_Software\Flash_Debug\Obj\uc_dio_cfg.o
#        D:\VCU_Projects\deVCU_Rev2\JayemCodeReleaseRev2.2\JayemCodeRelease\01_Software\Flash_Debug\Obj\uc_eeprom.o
#        D:\VCU_Projects\deVCU_Rev2\JayemCodeReleaseRev2.2\JayemCodeRelease\01_Software\Flash_Debug\Obj\uc_eeprom_cfg.o
#        D:\VCU_Projects\deVCU_Rev2\JayemCodeReleaseRev2.2\JayemCodeRelease\01_Software\Flash_Debug\Obj\uc_flash.o
#        D:\VCU_Projects\deVCU_Rev2\JayemCodeReleaseRev2.2\JayemCodeRelease\01_Software\Flash_Debug\Obj\uc_flash_cfg.o
#        D:\VCU_Projects\deVCU_Rev2\JayemCodeReleaseRev2.2\JayemCodeRelease\01_Software\Flash_Debug\Obj\uc_pwm.o
#        D:\VCU_Projects\deVCU_Rev2\JayemCodeReleaseRev2.2\JayemCodeRelease\01_Software\Flash_Debug\Obj\uc_pwm_cfg.o
#        D:\VCU_Projects\deVCU_Rev2\JayemCodeReleaseRev2.2\JayemCodeRelease\01_Software\Flash_Debug\Obj\uc_spi.o
#        D:\VCU_Projects\deVCU_Rev2\JayemCodeReleaseRev2.2\JayemCodeRelease\01_Software\Flash_Debug\Obj\uc_spi_cfg.o
#        D:\VCU_Projects\deVCU_Rev2\JayemCodeReleaseRev2.2\JayemCodeRelease\01_Software\Flash_Debug\Obj\uc_system.o
#        D:\VCU_Projects\deVCU_Rev2\JayemCodeReleaseRev2.2\JayemCodeRelease\01_Software\Flash_Debug\Obj\uc_system_cfg.o
#        D:\VCU_Projects\deVCU_Rev2\JayemCodeReleaseRev2.2\JayemCodeRelease\01_Software\Flash_Debug\Obj\uc_timer.o
#        D:\VCU_Projects\deVCU_Rev2\JayemCodeReleaseRev2.2\JayemCodeRelease\01_Software\Flash_Debug\Obj\uc_timer_cfg.o
#        "D:\VCU_Projects\deVCU_Rev2\JayemCodeReleaseRev2.2\JayemCodeRelease\01_Software\Flash_Debug\Obj\uc_uart
#        _cfg.o"
#        D:\VCU_Projects\deVCU_Rev2\JayemCodeReleaseRev2.2\JayemCodeRelease\01_Software\Flash_Debug\Obj\uc_uart.o
#        D:\VCU_Projects\deVCU_Rev2\JayemCodeReleaseRev2.2\JayemCodeRelease\01_Software\Flash_Debug\Obj\uc_wdg.o
#        D:\VCU_Projects\deVCU_Rev2\JayemCodeReleaseRev2.2\JayemCodeRelease\01_Software\Flash_Debug\Obj\uc_wdg_cfg.o
#        D:\VCU_Projects\deVCU_Rev2\JayemCodeReleaseRev2.2\JayemCodeRelease\01_Software\Flash_Debug\Obj\uLong2MultiWord.o
#        D:\VCU_Projects\deVCU_Rev2\JayemCodeReleaseRev2.2\JayemCodeRelease\01_Software\Flash_Debug\Obj\uMultiWord2Double.o
#        -o
#        D:\VCU_Projects\deVCU_Rev2\JayemCodeReleaseRev2.2\JayemCodeRelease\01_Software\Flash_Debug\Exe\FordeMCDtest.out
#        --redirect _Printf=_PrintfFull --redirect _Scanf=_ScanfFull --map
#        D:\VCU_Projects\deVCU_Rev2\JayemCodeReleaseRev2.2\JayemCodeRelease\01_Software\Flash_Debug\List\FordeMCDtest.map
#        --log
#        libraries,initialization,modules,redirects,sections,veneers,unused_fragments
#        --log_file
#        D:\VCU_Projects\deVCU_Rev2\JayemCodeReleaseRev2.2\JayemCodeRelease\01_Software\Flash_Debug\List\FordeMCDtest.log
#        --config
#        D:\VCU_Projects\deVCU_Rev2\JayemCodeReleaseRev2.2\JayemCodeRelease\01_Software\config\TMS570LS3137_flash.icf
#        --semihosting
#        "D:\VCU_Projects\deVCU_Rev2\JayemCodeReleaseRev2.2\JayemCodeRelease\01_Software\01_Code\deMCD\Core\LIB\F021
#        Flash API\02.01.01\F021_API_CortexR4_BE.lib" --entry
#        __iar_program_start --BE32 --vfe
#
###############################################################################

*******************************************************************************
*** RUNTIME MODEL ATTRIBUTES
***

CppFlavor       = *
__SystemLibrary = DLib


*******************************************************************************
*** PLACEMENT SUMMARY
***

"A1":  place at 0x00100000 { ro section .intvec };
"P1":  place in [from 0x00100040 to 0x002fffff] { ro };
"P2":  place in [from 0x08000000 to 0x0803ffff] {
          rw, block CSTACK, block SVC_STACK, block IRQ_STACK, block FIQ_STACK,
          block UND_STACK, block ABT_STACK, block HEAP };

  Section                 Kind        Address     Size  Object
  -------                 ----        -------     ----  ------
"A1":                                             0x3c
  .intvec                 ro code  0x00100000     0x3c  tms570ls3137_cstartup.o [1]
                                 - 0x0010003c     0x3c

"P1":                                          0x1ae88
  .text                   ro code  0x00100040   0x2a72  app_Main10msMgr.o [1]
  .rodata                 const    0x00102ab2      0x2  ecu_anlg_cfg.o [1]
  .text                   ro code  0x00102ab4    0x2f8  ecu_anlg.o [1]
  .text                   ro code  0x00102dac   0x1b14  rte.o [1]
  .text                   ro code  0x001048c0   0x1f68  ecu_com.o [1]
  .text                   ro code  0x00106828    0xfe0  ecu_io.o [1]
  .text                   ro code  0x00107808     0x68  floor.o [5]
  .text                   ro code  0x00107870     0x98  rt_nonfinite.o [1]
  .text                   ro code  0x00107908    0x1c4  fmod.o [5]
  .text                   ro code  0x00107acc     0x74  ABImemset.o [6]
  .text                   ro code  0x00107b40     0x54  app_Main10msMgr_capi.o [1]
  .text                   ro code  0x00107b94    0x6c4  uc_adc.o [1]
  .text                   ro code  0x00108258     0x3e  lib_data.o [1]
  .rodata                 const    0x00108296      0x1  app_Main10msMgr_capi.o [1]
  .text                   ro code  0x00108298    0x474  app_FaultMgr.o [1]
  .text                   ro code  0x0010870c    0x1ee  app_Main1msMgr.o [1]
  .text                   ro code  0x001088fc     0x3e  app_Main50msMgr.o [1]
  .text                   ro code  0x0010893c     0x3e  app_Main100msMgr.o [1]
  .text                   ro code  0x0010897c   0x2784  uc_can.o [1]
  .text                   ro code  0x0010b100   0x1bb8  uc_spi.o [1]
  .text                   ro code  0x0010ccb8    0x520  uc_dio.o [1]
  .text                   ro code  0x0010d1d8    0xd1c  uc_pwm.o [1]
  .text                   ro code  0x0010def4     0xd4  ecu_system.o [1]
  .text                   ro code  0x0010dfc8     0x64  rtGetNaN.o [1]
  .text                   ro code  0x0010e02c     0xac  rtGetInf.o [1]
  .text                   ro code  0x0010e0d8     0x14  iarEdom.o [6]
  .text                   ro code  0x0010e0ec    0x438  ecu_mem.o [1]
  .text                   ro code  0x0010e524     0x54  app_Main1msMgr_capi.o [1]
  .text                   ro code  0x0010e578     0x54  app_Main50msMgr_capi.o [1]
  .text                   ro code  0x0010e5cc     0x54  app_Main100msMgr_capi.o [1]
  Veneer                  ro code  0x0010e620      0x8  - Linker created -
  .text                   ro code  0x0010e628    0x160  uc_system.o [1]
  .text                   ro code  0x0010e788     0xd4  ABImemcpy.o [6]
  .text                   ro code  0x0010e85c     0x4a  round.o [5]
  .text                   ro code  0x0010e8a8    0x248  os.o [1]
  .text                   ro code  0x0010eaf0     0x5c  ecu_wdg.o [1]
  .text                   ro code  0x0010eb4c     0x14  lib_delay.o [1]
  .text                   ro code  0x0010eb60      0xc  errno.o [4]
  .text                   ro code  0x0010eb6c    0x258  uc_eeprom.o [1]
  .text                   ro code  0x0010edc4      0x8  ABImemclr4.o [6]
  .text                   ro code  0x0010edcc    0x1c0  low_level_init.o [1]
  .text                   ro code  0x0010ef8c     0x7a  xdint.o [5]
  .text                   ro code  0x0010f008    0x264  uc_timer.o [1]
  .text                   ro code  0x0010f26c      0x2  xtls.o [4]
  .text:Fapi_initializeFlashBanks
                          ro code  0x0010f270    0x260  FlashStateMachine.InitializeFlashBanks.obj [3]
  .text:Fapi_setActiveFlashBank
                          ro code  0x0010f4d0    0x17c  FlashStateMachine.SetActiveBank.obj [3]
  .text:Fapi_enableEepromBankSectors
                          ro code  0x0010f64c     0x80  FlashStateMachine.EnableEepromSectors.obj [3]
  .text:Fapi_issueAsyncCommand
                          ro code  0x0010f6cc     0x2a  Async.obj [3]
  .text:Fapi_issueProgrammingCommand
                          ro code  0x0010f6f8    0x178  Program.obj [3]
  .text:Fapi_doMarginRead
                          ro code  0x0010f870     0x6e  Read.Margin.obj [3]
  .text:Fapi_issueAsyncCommandWithAddress
                          ro code  0x0010f8e0     0x30  Async.WithAddress.obj [3]
  .text                   ro code  0x0010f910     0x38  ABImemset48.o [6]
  .text:Fapi_calculateFletcherChecksum
                          ro code  0x0010f948     0x36  Utilities.CalculateFletcher.obj [3]
  .text:_Fapi_divideUnsignedLong
                          ro code  0x0010f97e     0x1c  FlashStateMachine.InitializeFlashBanks.obj [3]
  .text:_scaleMainFclk    ro code  0x0010f99c     0x10  FlashStateMachine.ScaleFclk.obj [3]
  .text:_scaleEEFclk      ro code  0x0010f9ac     0x10  FlashStateMachine.ScaleFclk.obj [3]
  .text:Fapi_getNumberOfBankSectors
                          ro code  0x0010f9bc     0x10  Utilities.GetNumberOfSectors.obj [3]
  .text:_Fapi_EnableSectors
                          ro code  0x0010f9cc     0x44  FlashStateMachine.EnableEepromSectors.obj [3]
  .text:_Fapi_issueFsmCommand
                          ro code  0x0010fa10     0x3c  FlashStateMachine.IssueFsmCommand.obj [3]
  .text:Fapi_calculateEcc
                          ro code  0x0010fa4c     0x14  Utilities.CalculateEcc.obj [3]
  .text:_Fapi_enterMarginMode
                          ro code  0x0010fa60     0x68  Read.Common.obj [3]
  .text:Fapi_isAddressEcc
                          ro code  0x0010fac8     0x50  FlashStateMachine.Hercules.IsEccAddress.obj [3]
  .text:_Fapi_checkWdService
                          ro code  0x0010fb18      0xc  Read.WdService.obj [3]
  .text:_Fapi_exitMarginMode
                          ro code  0x0010fb24     0x2c  Read.Common.obj [3]
  .text:Fapi_flushPipeline
                          ro code  0x0010fb50     0x22  Read.FlushPipeline.obj [3]
  .text                   ro code  0x0010fb72      0x4  Fapi_UserDefinedFunctions.o [1]
  .text:Fapi_waitDelay    ro code  0x0010fb76     0x30  Utilities.WaitDelay.obj [3]
  .text                   ro code  0x0010fba8   0x1dac  app_diag.o [1]
  .text                   ro code  0x00111954    0x458  ecu_diag.o [1]
  .text                   ro code  0x00111dac    0x6c6  app_diag_gf.o [1]
  .text                   ro code  0x00112474    0xc94  uc_uart.o [1]
  .rodata                 const    0x00113108    0xf00  app_Main10msMgr_capi.o [1]
  .text                   ro code  0x00114008    0xb14  ecu_serial.o [1]
  .rodata                 const    0x00114b1c    0x7c4  app_Main10msMgr_capi.o [1]
  .text                   ro code  0x001152e0    0x31c  main.o [1]
  .text                   ro code  0x001155fc     0x30  uc.o [1]
  .text                   ro code  0x0011562c     0x3c  ecu.o [1]
  .text                   ro code  0x00115668      0xa  app.o [1]
  .text                   ro code  0x00115674    0x1e4  ecu_txcp.o [1]
  .text                   ro code  0x00115858    0x1cc  tms570ls3137_cstartup.o [1]
  .rodata                 const    0x00115a24    0x1a4  app_Main1msMgr_capi.o [1]
  .text                   ro code  0x00115bc8     0xa4  os_tasks.o [1]
  .text                   ro code  0x00115c6c     0x24  rte_tasks.o [1]
  .rodata                 const    0x00115c90     0x78  app_Main10msMgr_capi.o [1]
  .text                   ro code  0x00115d08     0x78  lz77_init_single.o [6]
  .rodata                 const    0x00115d80     0x64  app_Main10msMgr_capi.o [1]
  .rodata                 const    0x00115de4     0x58  app_Main10msMgr_capi.o [1]
  .rodata                 const    0x00115e3c     0x48  app_Main10msMgr_capi.o [1]
  .rodata                 const    0x00115e84     0x48  app_Main10msMgr_capi.o [1]
  .rodata                 const    0x00115ecc     0x48  app_Main10msMgr_capi.o [1]
  .rodata                 const    0x00115f14     0x48  app_Main10msMgr_capi.o [1]
  .rodata                 const    0x00115f5c     0x48  app_Main10msMgr_capi.o [1]
  .rodata                 const    0x00115fa4     0x48  app_Main10msMgr_capi.o [1]
  .rodata                 const    0x00115fec     0x48  app_Main10msMgr_capi.o [1]
  .rodata                 const    0x00116034     0x48  app_Main10msMgr_capi.o [1]
  .rodata                 const    0x0011607c     0x48  app_Main10msMgr_capi.o [1]
  .rodata                 const    0x001160c4     0x48  app_Main10msMgr_capi.o [1]
  .rodata                 const    0x0011610c     0x48  app_Main10msMgr_capi.o [1]
  .rodata                 const    0x00116154     0x48  app_Main10msMgr_capi.o [1]
  .rodata                 const    0x0011619c     0x48  app_Main10msMgr_capi.o [1]
  .rodata                 const    0x001161e4     0x48  app_Main10msMgr_capi.o [1]
  .rodata                 const    0x0011622c     0x48  app_Main10msMgr_capi.o [1]
  .rodata                 const    0x00116274     0x48  app_Main10msMgr_capi.o [1]
  .rodata                 const    0x001162bc     0x48  app_Main10msMgr_capi.o [1]
  .rodata                 const    0x00116304     0x48  app_Main10msMgr_capi.o [1]
  .rodata                 const    0x0011634c     0x48  app_Main10msMgr_capi.o [1]
  .rodata                 const    0x00116394     0x48  app_Main10msMgr_capi.o [1]
  .rodata                 const    0x001163dc     0x40  app_Main10msMgr_capi.o [1]
  .rodata                 const    0x0011641c     0x40  app_Main10msMgr_capi.o [1]
  .text                   ro code  0x0011645c     0x40  zero_init3.o [6]
  .rodata                 const    0x0011649c     0x3c  app_Main10msMgr_capi.o [1]
  .rodata                 const    0x001164d8     0x3c  app_Main10msMgr_capi.o [1]
  .rodata                 const    0x00116514     0x3c  app_Main10msMgr_capi.o [1]
  .rodata                 const    0x00116550     0x3c  app_Main10msMgr_capi.o [1]
  .rodata                 const    0x0011658c     0x3c  app_Main10msMgr_capi.o [1]
  .rodata                 const    0x001165c8     0x3c  app_Main10msMgr_capi.o [1]
  .rodata                 const    0x00116604     0x3c  app_Main10msMgr_capi.o [1]
  .rodata                 const    0x00116640     0x3c  app_Main10msMgr_capi.o [1]
  .rodata                 const    0x0011667c     0x3c  app_Main10msMgr_capi.o [1]
  .rodata                 const    0x001166b8     0x3c  app_Main10msMgr_capi.o [1]
  .rodata                 const    0x001166f4     0x3c  app_Main10msMgr_capi.o [1]
  .rodata                 const    0x00116730     0x3c  app_Main10msMgr_capi.o [1]
  .rodata                 const    0x0011676c     0x3c  app_Main10msMgr_capi.o [1]
  .rodata                 const    0x001167a8     0x3c  app_Main10msMgr_capi.o [1]
  .rodata                 const    0x001167e4     0x3c  app_Main10msMgr_capi.o [1]
  .rodata                 const    0x00116820     0x3c  app_Main10msMgr_capi.o [1]
  .rodata                 const    0x0011685c     0x3c  app_Main10msMgr_capi.o [1]
  .rodata                 const    0x00116898     0x3c  app_Main10msMgr_capi.o [1]
  .rodata                 const    0x001168d4     0x3c  app_Main10msMgr_capi.o [1]
  .rodata                 const    0x00116910     0x3c  app_Main10msMgr_capi.o [1]
  .rodata                 const    0x0011694c     0x3c  app_Main10msMgr_capi.o [1]
  .rodata                 const    0x00116988     0x3c  app_Main10msMgr_capi.o [1]
  .rodata                 const    0x001169c4     0x38  app_Main10msMgr_capi.o [1]
  .rodata                 const    0x001169fc     0x38  app_Main10msMgr_capi.o [1]
  .rodata                 const    0x00116a34     0x38  app_Main10msMgr_capi.o [1]
  .rodata                 const    0x00116a6c     0x38  app_Main10msMgr_capi.o [1]
  .rodata                 const    0x00116aa4     0x38  app_Main10msMgr_capi.o [1]
  .rodata                 const    0x00116adc     0x38  app_Main10msMgr_capi.o [1]
  .rodata                 const    0x00116b14     0x34  app_Main100msMgr_capi.o [1]
  .rodata                 const    0x00116b48     0x34  app_Main10msMgr_capi.o [1]
  .rodata                 const    0x00116b7c     0x34  app_Main10msMgr_capi.o [1]
  .rodata                 const    0x00116bb0     0x34  app_Main10msMgr_capi.o [1]
  .rodata                 const    0x00116be4     0x34  app_Main10msMgr_capi.o [1]
  .rodata                 const    0x00116c18     0x34  app_Main10msMgr_capi.o [1]
  .rodata                 const    0x00116c4c     0x34  app_Main1msMgr_capi.o [1]
  .rodata                 const    0x00116c80     0x34  app_Main1msMgr_capi.o [1]
  .rodata                 const    0x00116cb4     0x34  app_Main1msMgr_capi.o [1]
  .rodata                 const    0x00116ce8     0x34  app_Main1msMgr_capi.o [1]
  .rodata                 const    0x00116d1c     0x34  app_Main1msMgr_capi.o [1]
  .rodata                 const    0x00116d50     0x34  app_Main1msMgr_capi.o [1]
  .rodata                 const    0x00116d84     0x34  app_Main1msMgr_capi.o [1]
  .rodata                 const    0x00116db8     0x34  app_Main1msMgr_capi.o [1]
  .rodata                 const    0x00116dec     0x34  app_Main1msMgr_capi.o [1]
  .rodata                 const    0x00116e20     0x34  app_Main1msMgr_capi.o [1]
  .rodata                 const    0x00116e54     0x34  app_Main1msMgr_capi.o [1]
  .rodata                 const    0x00116e88     0x34  app_Main1msMgr_capi.o [1]
  .rodata                 const    0x00116ebc     0x34  app_Main1msMgr_capi.o [1]
  .rodata                 const    0x00116ef0     0x34  app_Main1msMgr_capi.o [1]
  .rodata                 const    0x00116f24     0x34  app_Main1msMgr_capi.o [1]
  .rodata                 const    0x00116f58     0x34  app_Main1msMgr_capi.o [1]
  .rodata                 const    0x00116f8c     0x30  app_Main10msMgr_capi.o [1]
  .rodata                 const    0x00116fbc     0x30  app_Main10msMgr_capi.o [1]
  .rodata                 const    0x00116fec     0x30  app_Main10msMgr_capi.o [1]
  .rodata                 const    0x0011701c     0x30  app_Main10msMgr_capi.o [1]
  .rodata                 const    0x0011704c     0x30  app_Main10msMgr_capi.o [1]
  .rodata                 const    0x0011707c     0x30  app_Main10msMgr_capi.o [1]
  .rodata                 const    0x001170ac     0x30  app_Main10msMgr_capi.o [1]
  .rodata                 const    0x001170dc     0x30  app_Main10msMgr_capi.o [1]
  .rodata                 const    0x0011710c     0x30  app_Main10msMgr_capi.o [1]
  .rodata                 const    0x0011713c     0x30  app_Main10msMgr_capi.o [1]
  .rodata                 const    0x0011716c     0x30  app_Main10msMgr_capi.o [1]
  .rodata                 const    0x0011719c     0x30  app_Main10msMgr_capi.o [1]
  .rodata                 const    0x001171cc     0x30  app_Main10msMgr_capi.o [1]
  .rodata                 const    0x001171fc     0x30  app_Main10msMgr_capi.o [1]
  .rodata                 const    0x0011722c     0x30  app_Main10msMgr_capi.o [1]
  .rodata                 const    0x0011725c     0x30  app_Main10msMgr_capi.o [1]
  .rodata                 const    0x0011728c     0x30  app_Main10msMgr_capi.o [1]
  .rodata                 const    0x001172bc     0x30  app_Main10msMgr_capi.o [1]
  .rodata                 const    0x001172ec     0x30  app_Main10msMgr_capi.o [1]
  .rodata                 const    0x0011731c     0x30  app_Main10msMgr_capi.o [1]
  .rodata                 const    0x0011734c     0x30  app_Main10msMgr_capi.o [1]
  .rodata                 const    0x0011737c     0x30  app_Main10msMgr_capi.o [1]
  .rodata                 const    0x001173ac     0x30  app_Main10msMgr_capi.o [1]
  .rodata                 const    0x001173dc     0x30  app_Main10msMgr_capi.o [1]
  .rodata                 const    0x0011740c     0x30  app_Main10msMgr_capi.o [1]
  .rodata                 const    0x0011743c     0x30  app_Main10msMgr_capi.o [1]
  .rodata                 const    0x0011746c     0x30  app_Main10msMgr_capi.o [1]
  .rodata                 const    0x0011749c     0x30  app_Main10msMgr_capi.o [1]
  .rodata                 const    0x001174cc     0x30  app_Main10msMgr_capi.o [1]
  .rodata                 const    0x001174fc     0x30  app_Main10msMgr_capi.o [1]
  .rodata                 const    0x0011752c     0x30  app_Main10msMgr_capi.o [1]
  .rodata                 const    0x0011755c     0x30  app_Main10msMgr_capi.o [1]
  .rodata                 const    0x0011758c     0x30  app_Main10msMgr_capi.o [1]
  .rodata                 const    0x001175bc     0x30  app_Main10msMgr_capi.o [1]
  .rodata                 const    0x001175ec     0x30  app_Main10msMgr_capi.o [1]
  .rodata                 const    0x0011761c     0x30  app_Main10msMgr_capi.o [1]
  .rodata                 const    0x0011764c     0x30  app_Main10msMgr_capi.o [1]
  .rodata                 const    0x0011767c     0x30  app_Main10msMgr_capi.o [1]
  .rodata                 const    0x001176ac     0x30  app_Main10msMgr_capi.o [1]
  .rodata                 const    0x001176dc     0x30  app_Main10msMgr_capi.o [1]
  .rodata                 const    0x0011770c     0x30  app_Main1msMgr_capi.o [1]
  .rodata                 const    0x0011773c     0x30  app_Main1msMgr_capi.o [1]
  .rodata                 const    0x0011776c     0x30  app_Main50msMgr_capi.o [1]
  .text                   ro code  0x0011779c     0x30  data_init.o [6]
  .rodata                 const    0x001177cc     0x2c  app_Main10msMgr_capi.o [1]
  .rodata                 const    0x001177f8     0x2c  app_Main10msMgr_capi.o [1]
  .rodata                 const    0x00117824     0x2c  app_Main10msMgr_capi.o [1]
  .rodata                 const    0x00117850     0x2c  app_Main10msMgr_capi.o [1]
  .rodata                 const    0x0011787c     0x2c  app_Main10msMgr_capi.o [1]
  .rodata                 const    0x001178a8     0x2c  app_Main10msMgr_capi.o [1]
  .rodata                 const    0x001178d4     0x2c  app_Main10msMgr_capi.o [1]
  .rodata                 const    0x00117900     0x2c  app_Main10msMgr_capi.o [1]
  .rodata                 const    0x0011792c     0x2c  app_Main10msMgr_capi.o [1]
  .rodata                 const    0x00117958     0x2c  app_Main10msMgr_capi.o [1]
  .rodata                 const    0x00117984     0x2c  app_Main10msMgr_capi.o [1]
  .rodata                 const    0x001179b0     0x2c  app_Main10msMgr_capi.o [1]
  .rodata                 const    0x001179dc     0x2c  app_Main10msMgr_capi.o [1]
  .rodata                 const    0x00117a08     0x2c  app_Main10msMgr_capi.o [1]
  .rodata                 const    0x00117a34     0x2c  app_Main10msMgr_capi.o [1]
  .rodata                 const    0x00117a60     0x2c  app_Main10msMgr_capi.o [1]
  .rodata                 const    0x00117a8c     0x2c  app_Main10msMgr_capi.o [1]
  .rodata                 const    0x00117ab8     0x2c  app_Main10msMgr_capi.o [1]
  .rodata                 const    0x00117ae4     0x2c  app_Main10msMgr_capi.o [1]
  .rodata                 const    0x00117b10     0x2c  app_Main10msMgr_capi.o [1]
  .rodata                 const    0x00117b3c     0x2c  app_Main10msMgr_capi.o [1]
  .rodata                 const    0x00117b68     0x2c  app_Main10msMgr_capi.o [1]
  .rodata                 const    0x00117b94     0x2c  app_Main10msMgr_capi.o [1]
  .rodata                 const    0x00117bc0     0x2c  app_Main10msMgr_capi.o [1]
  .rodata                 const    0x00117bec     0x2c  app_Main10msMgr_capi.o [1]
  .rodata                 const    0x00117c18     0x2c  app_Main10msMgr_capi.o [1]
  .rodata                 const    0x00117c44     0x2c  app_Main10msMgr_capi.o [1]
  .rodata                 const    0x00117c70     0x2c  app_Main10msMgr_capi.o [1]
  .rodata                 const    0x00117c9c     0x2c  app_Main1msMgr_capi.o [1]
  .text                   ro code  0x00117cc8     0x2c  cmain.o [6]
  Veneer                  ro code  0x00117cf4      0x8  - Linker created -
  .text                   ro code  0x00117cfc      0x4  exit.o [4]
  .text                   ro code  0x00117d00     0x14  exit.o [7]
  .text                   ro code  0x00117d14     0x10  cexit.o [6]
  .rodata                 const    0x00117d24     0x28  app_Main100msMgr_capi.o [1]
  .rodata                 const    0x00117d4c     0x28  app_Main100msMgr_capi.o [1]
  .rodata                 const    0x00117d74     0x28  app_Main10msMgr_capi.o [1]
  .rodata                 const    0x00117d9c     0x28  app_Main10msMgr_capi.o [1]
  .rodata                 const    0x00117dc4     0x28  app_Main10msMgr_capi.o [1]
  .rodata                 const    0x00117dec     0x28  app_Main10msMgr_capi.o [1]
  .rodata                 const    0x00117e14     0x28  app_Main10msMgr_capi.o [1]
  .rodata                 const    0x00117e3c     0x28  app_Main10msMgr_capi.o [1]
  .rodata                 const    0x00117e64     0x28  app_Main10msMgr_capi.o [1]
  .rodata                 const    0x00117e8c     0x28  app_Main10msMgr_capi.o [1]
  .rodata                 const    0x00117eb4     0x28  app_Main10msMgr_capi.o [1]
  .rodata                 const    0x00117edc     0x28  app_Main10msMgr_capi.o [1]
  .rodata                 const    0x00117f04     0x28  app_Main10msMgr_capi.o [1]
  .rodata                 const    0x00117f2c     0x28  app_Main10msMgr_capi.o [1]
  .rodata                 const    0x00117f54     0x28  app_Main10msMgr_capi.o [1]
  .rodata                 const    0x00117f7c     0x28  app_Main10msMgr_capi.o [1]
  .rodata                 const    0x00117fa4     0x28  app_Main10msMgr_capi.o [1]
  .rodata                 const    0x00117fcc     0x28  app_Main10msMgr_capi.o [1]
  .rodata                 const    0x00117ff4     0x28  app_Main10msMgr_capi.o [1]
  .rodata                 const    0x0011801c     0x28  app_Main10msMgr_capi.o [1]
  .rodata                 const    0x00118044     0x28  app_Main10msMgr_capi.o [1]
  .rodata                 const    0x0011806c     0x28  app_Main10msMgr_capi.o [1]
  .rodata                 const    0x00118094     0x28  app_Main10msMgr_capi.o [1]
  .rodata                 const    0x001180bc     0x28  app_Main10msMgr_capi.o [1]
  .rodata                 const    0x001180e4     0x28  app_Main10msMgr_capi.o [1]
  .rodata                 const    0x0011810c     0x28  app_Main10msMgr_capi.o [1]
  .rodata                 const    0x00118134     0x28  app_Main10msMgr_capi.o [1]
  .rodata                 const    0x0011815c     0x28  app_Main10msMgr_capi.o [1]
  .rodata                 const    0x00118184     0x28  app_Main10msMgr_capi.o [1]
  .rodata                 const    0x001181ac     0x28  app_Main10msMgr_capi.o [1]
  .rodata                 const    0x001181d4     0x28  app_Main10msMgr_capi.o [1]
  .rodata                 const    0x001181fc     0x28  app_Main10msMgr_capi.o [1]
  .rodata                 const    0x00118224     0x28  app_Main1msMgr_capi.o [1]
  .rodata                 const    0x0011824c     0x28  app_Main1msMgr_capi.o [1]
  .rodata                 const    0x00118274     0x28  app_Main50msMgr_capi.o [1]
  .rodata                 const    0x0011829c     0x28  app_Main50msMgr_capi.o [1]
  .text                   ro code  0x001182c4     0x28  fpinit.o [5]
  .rodata                 const    0x001182ec     0x24  app_Main10msMgr_capi.o [1]
  .rodata                 const    0x00118310     0x24  app_Main10msMgr_capi.o [1]
  .rodata                 const    0x00118334     0x24  app_Main10msMgr_capi.o [1]
  .rodata                 const    0x00118358     0x24  app_Main10msMgr_capi.o [1]
  .rodata                 const    0x0011837c     0x24  app_Main10msMgr_capi.o [1]
  .rodata                 const    0x001183a0     0x24  app_Main10msMgr_capi.o [1]
  .rodata                 const    0x001183c4     0x24  app_Main10msMgr_capi.o [1]
  .rodata                 const    0x001183e8     0x24  app_Main10msMgr_capi.o [1]
  .rodata                 const    0x0011840c     0x24  app_Main10msMgr_capi.o [1]
  .rodata                 const    0x00118430     0x24  app_Main10msMgr_capi.o [1]
  .rodata                 const    0x00118454     0x24  app_Main10msMgr_capi.o [1]
  .rodata                 const    0x00118478     0x24  app_Main10msMgr_capi.o [1]
  .rodata                 const    0x0011849c     0x24  app_Main10msMgr_capi.o [1]
  .rodata                 const    0x001184c0     0x24  app_Main10msMgr_capi.o [1]
  .rodata                 const    0x001184e4     0x24  app_Main10msMgr_capi.o [1]
  .rodata                 const    0x00118508     0x24  app_Main10msMgr_capi.o [1]
  .rodata                 const    0x0011852c     0x24  app_Main10msMgr_capi.o [1]
  .rodata                 const    0x00118550     0x24  app_Main10msMgr_capi.o [1]
  .rodata                 const    0x00118574     0x24  app_Main10msMgr_capi.o [1]
  .rodata                 const    0x00118598     0x24  app_Main10msMgr_capi.o [1]
  .rodata                 const    0x001185bc     0x24  app_Main10msMgr_capi.o [1]
  .rodata                 const    0x001185e0     0x24  app_Main10msMgr_capi.o [1]
  .rodata                 const    0x00118604     0x24  app_Main10msMgr_capi.o [1]
  .rodata                 const    0x00118628     0x24  app_Main10msMgr_capi.o [1]
  .rodata                 const    0x0011864c     0x24  app_Main10msMgr_capi.o [1]
  .rodata                 const    0x00118670     0x24  app_Main10msMgr_capi.o [1]
  .rodata                 const    0x00118694     0x24  app_Main10msMgr_capi.o [1]
  .rodata                 const    0x001186b8     0x24  app_Main10msMgr_capi.o [1]
  .rodata                 const    0x001186dc     0x24  app_Main10msMgr_capi.o [1]
  .rodata                 const    0x00118700     0x24  app_Main10msMgr_capi.o [1]
  .rodata                 const    0x00118724     0x24  app_Main10msMgr_capi.o [1]
  .rodata                 const    0x00118748     0x24  app_Main10msMgr_capi.o [1]
  .rodata                 const    0x0011876c     0x24  app_Main10msMgr_capi.o [1]
  .rodata                 const    0x00118790     0x24  app_Main10msMgr_capi.o [1]
  .rodata                 const    0x001187b4     0x24  app_Main10msMgr_capi.o [1]
  .rodata                 const    0x001187d8     0x24  app_Main10msMgr_capi.o [1]
  .rodata                 const    0x001187fc     0x24  app_Main10msMgr_capi.o [1]
  .rodata                 const    0x00118820     0x24  app_Main10msMgr_capi.o [1]
  .rodata                 const    0x00118844     0x24  app_Main10msMgr_capi.o [1]
  .rodata                 const    0x00118868     0x24  app_Main10msMgr_capi.o [1]
  .rodata                 const    0x0011888c     0x24  app_Main10msMgr_capi.o [1]
  .rodata                 const    0x001188b0     0x24  app_Main10msMgr_capi.o [1]
  .rodata                 const    0x001188d4     0x24  app_Main10msMgr_capi.o [1]
  .rodata                 const    0x001188f8     0x24  app_Main10msMgr_capi.o [1]
  .rodata                 const    0x0011891c     0x24  app_Main10msMgr_capi.o [1]
  .rodata                 const    0x00118940     0x24  app_Main10msMgr_capi.o [1]
  .rodata                 const    0x00118964     0x24  app_Main10msMgr_capi.o [1]
  .rodata                 const    0x00118988     0x24  app_Main10msMgr_capi.o [1]
  .rodata                 const    0x001189ac     0x24  app_Main10msMgr_capi.o [1]
  .rodata                 const    0x001189d0     0x24  app_Main10msMgr_capi.o [1]
  .rodata                 const    0x001189f4     0x24  app_Main10msMgr_capi.o [1]
  .rodata                 const    0x00118a18     0x24  app_Main10msMgr_capi.o [1]
  .rodata                 const    0x00118a3c     0x24  app_Main10msMgr_capi.o [1]
  .rodata                 const    0x00118a60     0x24  app_Main10msMgr_capi.o [1]
  .rodata                 const    0x00118a84     0x24  app_Main10msMgr_capi.o [1]
  .rodata                 const    0x00118aa8     0x24  app_Main10msMgr_capi.o [1]
  .rodata                 const    0x00118acc     0x24  app_Main10msMgr_capi.o [1]
  .rodata                 const    0x00118af0     0x24  app_Main10msMgr_capi.o [1]
  .rodata                 const    0x00118b14     0x24  app_Main10msMgr_capi.o [1]
  .rodata                 const    0x00118b38     0x24  app_Main10msMgr_capi.o [1]
  .rodata                 const    0x00118b5c     0x24  app_Main10msMgr_capi.o [1]
  .rodata                 const    0x00118b80     0x24  app_Main10msMgr_capi.o [1]
  .rodata                 const    0x00118ba4     0x24  app_Main10msMgr_capi.o [1]
  .rodata                 const    0x00118bc8     0x24  app_Main10msMgr_capi.o [1]
  .rodata                 const    0x00118bec     0x24  app_Main10msMgr_capi.o [1]
  .rodata                 const    0x00118c10     0x24  app_Main10msMgr_capi.o [1]
  .rodata                 const    0x00118c34     0x24  app_Main10msMgr_capi.o [1]
  .rodata                 const    0x00118c58     0x24  app_Main10msMgr_capi.o [1]
  .rodata                 const    0x00118c7c     0x24  app_Main10msMgr_capi.o [1]
  .rodata                 const    0x00118ca0     0x24  app_Main10msMgr_capi.o [1]
  .rodata                 const    0x00118cc4     0x24  app_Main10msMgr_capi.o [1]
  .rodata                 const    0x00118ce8     0x24  app_Main10msMgr_capi.o [1]
  .rodata                 const    0x00118d0c     0x24  app_Main10msMgr_capi.o [1]
  .rodata                 const    0x00118d30     0x24  app_Main10msMgr_capi.o [1]
  .rodata                 const    0x00118d54     0x24  app_Main10msMgr_capi.o [1]
  .rodata                 const    0x00118d78     0x24  app_Main10msMgr_capi.o [1]
  .rodata                 const    0x00118d9c     0x24  app_Main10msMgr_capi.o [1]
  .rodata                 const    0x00118dc0     0x24  app_Main10msMgr_capi.o [1]
  .iar.init_table         const    0x00118de4     0x20  - Linker created -
  .rodata                 const    0x00118e04     0x20  app_Main10msMgr_capi.o [1]
  .rodata                 const    0x00118e24     0x20  app_Main10msMgr_capi.o [1]
  .rodata                 const    0x00118e44     0x20  app_Main10msMgr_capi.o [1]
  .rodata                 const    0x00118e64     0x1c  app_Main100msMgr_capi.o [1]
  .rodata                 const    0x00118e80     0x1c  app_Main100msMgr_capi.o [1]
  .rodata                 const    0x00118e9c     0x1c  app_Main100msMgr_capi.o [1]
  .rodata                 const    0x00118eb8     0x1c  app_Main10msMgr_capi.o [1]
  .rodata                 const    0x00118ed4     0x1c  app_Main10msMgr_capi.o [1]
  .rodata                 const    0x00118ef0     0x1c  app_Main10msMgr_capi.o [1]
  .rodata                 const    0x00118f0c     0x1c  app_Main10msMgr_capi.o [1]
  .rodata                 const    0x00118f28     0x1c  app_Main10msMgr_capi.o [1]
  .rodata                 const    0x00118f44     0x1c  app_Main10msMgr_capi.o [1]
  .rodata                 const    0x00118f60     0x1c  app_Main10msMgr_capi.o [1]
  .rodata                 const    0x00118f7c     0x1c  app_Main1msMgr_capi.o [1]
  .rodata                 const    0x00118f98     0x1c  app_Main1msMgr_capi.o [1]
  .rodata                 const    0x00118fb4     0x1c  app_Main1msMgr_capi.o [1]
  .rodata                 const    0x00118fd0     0x1c  app_Main50msMgr_capi.o [1]
  .rodata                 const    0x00118fec     0x1c  app_Main50msMgr_capi.o [1]
  .rodata                 const    0x00119008     0x1c  app_Main50msMgr_capi.o [1]
  .rodata                 const    0x00119024     0x14  app_Main100msMgr_capi.o [1]
  .rodata                 const    0x00119038     0x18  app_Main10msMgr_capi.o [1]
  .rodata                 const    0x00119050     0x18  app_Main10msMgr_capi.o [1]
  .rodata                 const    0x00119068     0x14  app_Main10msMgr_capi.o [1]
  .rodata                 const    0x0011907c     0x14  app_Main1msMgr_capi.o [1]
  .rodata                 const    0x00119090     0x14  app_Main50msMgr_capi.o [1]
  .rodata                 const    0x001190a4     0x10  app_Main100msMgr_capi.o [1]
  .rodata                 const    0x001190b4     0x10  app_Main100msMgr_capi.o [1]
  .rodata                 const    0x001190c4     0x10  app_Main100msMgr_capi.o [1]
  .rodata                 const    0x001190d4     0x10  app_Main100msMgr_capi.o [1]
  .rodata                 const    0x001190e4     0x10  app_Main10msMgr_capi.o [1]
  .rodata                 const    0x001190f4     0x10  app_Main10msMgr_capi.o [1]
  .rodata                 const    0x00119104     0x10  app_Main10msMgr_capi.o [1]
  .rodata                 const    0x00119114     0x10  app_Main10msMgr_capi.o [1]
  .rodata                 const    0x00119124     0x10  app_Main10msMgr_capi.o [1]
  .rodata                 const    0x00119134     0x10  app_Main10msMgr_capi.o [1]
  .rodata                 const    0x00119144     0x10  app_Main1msMgr_capi.o [1]
  .rodata                 const    0x00119154     0x10  app_Main1msMgr_capi.o [1]
  .rodata                 const    0x00119164     0x10  app_Main1msMgr_capi.o [1]
  .rodata                 const    0x00119174     0x10  app_Main1msMgr_capi.o [1]
  .rodata                 const    0x00119184     0x10  app_Main50msMgr_capi.o [1]
  .rodata                 const    0x00119194     0x10  app_Main50msMgr_capi.o [1]
  .rodata                 const    0x001191a4     0x10  app_Main50msMgr_capi.o [1]
  .rodata                 const    0x001191b4     0x10  app_Main50msMgr_capi.o [1]
  .rodata                 const    0x001191c4      0xc  app_Main100msMgr_capi.o [1]
  .rodata                 const    0x001191d0      0xc  app_Main100msMgr_capi.o [1]
  .rodata                 const    0x001191dc      0xc  app_Main10msMgr_capi.o [1]
  .rodata                 const    0x001191e8      0xc  app_Main10msMgr_capi.o [1]
  .rodata                 const    0x001191f4      0xc  app_Main10msMgr_capi.o [1]
  .rodata                 const    0x00119200      0xc  app_Main10msMgr_capi.o [1]
  .rodata                 const    0x0011920c      0xc  app_Main1msMgr_capi.o [1]
  .rodata                 const    0x00119218      0xc  app_Main1msMgr_capi.o [1]
  .rodata                 const    0x00119224      0xc  app_Main1msMgr_capi.o [1]
  .rodata                 const    0x00119230      0xc  app_Main50msMgr_capi.o [1]
  .rodata                 const    0x0011923c      0xc  app_Main50msMgr_capi.o [1]
  .rodata                 const    0x00119248      0xc  ecu_io.o [1]
  .rodata                 const    0x00119254      0x8  app_diag.o [1]
  .rodata                 const    0x0011925c      0x8  app_diag.o [1]
  .rodata                 const    0x00119264      0x8  app_diag.o [1]
  .rodata                 const    0x0011926c      0x8  app_diag.o [1]
  .rodata                 const    0x00119274      0x8  app_diag.o [1]
  .rodata                 const    0x0011927c      0x8  app_diag.o [1]
  .rodata                 const    0x00119284      0x8  app_diag.o [1]
  .rodata                 const    0x0011928c      0x8  app_diag.o [1]
  .rodata                 const    0x00119294      0x8  app_Main100msMgr_capi.o [1]
  .rodata                 const    0x0011929c      0x8  app_Main100msMgr_capi.o [1]
  .rodata                 const    0x001192a4      0x8  app_Main100msMgr_capi.o [1]
  .rodata                 const    0x001192ac      0x8  app_Main100msMgr_capi.o [1]
  .rodata                 const    0x001192b4      0x8  app_Main10msMgr_capi.o [1]
  .rodata                 const    0x001192bc      0x8  app_Main10msMgr_capi.o [1]
  .rodata                 const    0x001192c4      0x8  app_Main10msMgr_capi.o [1]
  .rodata                 const    0x001192cc      0x8  app_Main10msMgr_capi.o [1]
  .rodata                 const    0x001192d4      0x8  app_Main10msMgr_capi.o [1]
  .rodata                 const    0x001192dc      0x8  app_Main10msMgr_capi.o [1]
  .rodata                 const    0x001192e4      0x8  app_Main10msMgr_capi.o [1]
  .rodata                 const    0x001192ec      0x8  app_Main10msMgr_capi.o [1]
  .rodata                 const    0x001192f4      0x8  app_Main10msMgr_capi.o [1]
  .rodata                 const    0x001192fc      0x8  app_Main10msMgr_capi.o [1]
  .rodata                 const    0x00119304      0x8  app_Main10msMgr_capi.o [1]
  .rodata                 const    0x0011930c      0x8  app_Main1msMgr_capi.o [1]
  .rodata                 const    0x00119314      0x8  app_Main1msMgr_capi.o [1]
  .rodata                 const    0x0011931c      0x8  app_Main1msMgr_capi.o [1]
  .rodata                 const    0x00119324      0x8  app_Main1msMgr_capi.o [1]
  .rodata                 const    0x0011932c      0x8  app_Main50msMgr_capi.o [1]
  .rodata                 const    0x00119334      0x8  app_Main50msMgr_capi.o [1]
  .rodata                 const    0x0011933c      0x8  app_Main50msMgr_capi.o [1]
  .rodata                 const    0x00119344      0x8  app_Main50msMgr_capi.o [1]
  .rodata                 const    0x0011934c      0x4  app_diag.o [1]
  .rodata                 const    0x00119350      0x4  app_Main100msMgr.o [1]
  .rodata                 const    0x00119354      0x4  app_Main10msMgr.o [1]
  .rodata                 const    0x00119358      0x4  app_Main1msMgr.o [1]
  .rodata                 const    0x0011935c      0x4  app_Main50msMgr.o [1]
  .rodata                 const    0x00119360      0x4  rtGetNaN.o [1]
  .rodata                 const    0x00119364      0x4  uc_system.o [1]
  .text                   ro code  0x00119368      0x4  xreturnswi.o [7]
  .rodata                 const    0x0011936c      0x0  zero_init3.o [6]
  .rodata                 const    0x0011936c      0x0  lz77_init_single.o [6]
  Initializer bytes       const    0x0011936c   0x1b5c  <for P2-1>
                                 - 0x0011aec8  0x1ae88

"P2", part 1 of 3:                              0x6c78
  P2-1                             0x08000000   0x6c78  <Init block>
    .data                 inited   0x08000000    0x5d8  app_Main10msMgr_data.o [1]
    .data                 inited   0x080005d8      0x4  app_diag_gf.o [1]
    .data                 inited   0x080005dc      0x4  app_FaultMgr.o [1]
    .data                 inited   0x080005e0     0xa8  app_FaultMgr_cfg.o [1]
    .data                 inited   0x08000688      0x4  app_Main100msMgr_capi.o [1]
    .data                 inited   0x0800068c     0x68  app_Main100msMgr_capi.o [1]
    .data                 inited   0x080006f4    0x41c  app_Main10msMgr_capi.o [1]
    .data                 inited   0x08000b10     0x68  app_Main10msMgr_capi.o [1]
    .data                 inited   0x08000b78     0x50  app_Main1msMgr_capi.o [1]
    .data                 inited   0x08000bc8     0x68  app_Main1msMgr_capi.o [1]
    .data                 inited   0x08000c30      0x4  app_Main50msMgr_capi.o [1]
    .data                 inited   0x08000c34     0x68  app_Main50msMgr_capi.o [1]
    .data                 inited   0x08000c9c    0x284  ecu_anlg_cfg.o [1]
    .data                 inited   0x08000f20     0x6c  ecu_com_cfg.o [1]
    .data                 inited   0x08000f8c     0x14  ecu_com_cfg_gen.o [1]
    .data                 inited   0x08000fa0     0xa0  ecu_com_cfg_gen.o [1]
    .data                 inited   0x08001040    0x118  ecu_com_cfg_gen.o [1]
    .data                 inited   0x08001158    0x7f8  ecu_com_cfg_gen.o [1]
    .data                 inited   0x08001950     0x14  ecu_com_cfg_gen.o [1]
    .data                 inited   0x08001964     0x28  ecu_com_cfg_gen.o [1]
    .data                 inited   0x0800198c    0x1e0  ecu_com_cfg_gen.o [1]
    .data                 inited   0x08001b6c    0x140  ecu_com_cfg_gen.o [1]
    .data                 inited   0x08001cac     0x14  ecu_com_cfg_gen.o [1]
    .data                 inited   0x08001cc0     0x28  ecu_com_cfg_gen.o [1]
    .data                 inited   0x08001ce8     0xc8  ecu_com_cfg_gen.o [1]
    .data                 inited   0x08001db0    0x3e8  ecu_com_cfg_gen.o [1]
    .data                 inited   0x08002198     0xfc  ecu_com_cfg_gen.o [1]
    .data                 inited   0x08002294     0x30  ecu_io.o [1]
    .data                 inited   0x080022c4     0x30  ecu_io_cfg.o [1]
    .data                 inited   0x080022f4     0x60  ecu_io_cfg.o [1]
    .data                 inited   0x08002354    0x17c  ecu_io_cfg.o [1]
    .data                 inited   0x080024d0    0x140  ecu_io_cfg.o [1]
    .data                 inited   0x08002610    0x1f8  ecu_mem_cfg.o [1]
    .data                 inited   0x08002808      0x8  ecu_mem_cfg.o [1]
    .data                 inited   0x08002810   0x18c0  ecu_serial_cfg.o [1]
    .data                 inited   0x080040d0     0x10  ecu_serial_cfg.o [1]
    .data                 inited   0x080040e0      0x8  main.o [1]
    .data                 inited   0x080040e8      0x8  main.o [1]
    .data                 inited   0x080040f0      0x4  main.o [1]
    .data                 inited   0x080040f4     0x60  os_cfg.o [1]
    .data                 inited   0x08004154    0xb50  rte.o [1]
    .data                 inited   0x08004ca4    0x5d8  uc_adc.o [1]
    .data                 inited   0x0800527c     0x60  uc_adc_cfg.o [1]
    .data                 inited   0x080052dc     0x14  uc_adc_cfg.o [1]
    .data                 inited   0x080052f0    0x540  uc_can.o [1]
    .data                 inited   0x08005830    0x1b8  uc_can_cfg.o [1]
    .data                 inited   0x080059e8     0xa0  uc_can_cfg.o [1]
    .data                 inited   0x08005a88     0x78  uc_can_cfg.o [1]
    .data                 inited   0x08005b00     0x50  uc_can_cfg.o [1]
    .data                 inited   0x08005b50     0x78  uc_can_cfg.o [1]
    .data                 inited   0x08005bc8     0x50  uc_can_cfg.o [1]
    .data                 inited   0x08005c18     0x6c  uc_can_cfg.o [1]
    .data                 inited   0x08005c84    0x200  uc_dio.o [1]
    .data                 inited   0x08005e84    0x270  uc_dio_cfg.o [1]
    .data                 inited   0x080060f4     0x48  uc_dio_cfg.o [1]
    .data                 inited   0x0800613c    0x160  uc_pwm.o [1]
    .data                 inited   0x0800629c     0x70  uc_pwm_cfg.o [1]
    .data                 inited   0x0800630c     0xc0  uc_pwm_cfg.o [1]
    .data                 inited   0x080063cc    0x4c0  uc_spi.o [1]
    .data                 inited   0x0800688c     0xb4  uc_spi_cfg.o [1]
    .data                 inited   0x08006940     0x78  uc_spi_cfg.o [1]
    .data                 inited   0x080069b8     0xa0  uc_timer_cfg.o [1]
    .data                 inited   0x08006a58     0x88  uc_uart _cfg.o [1]
    .data                 inited   0x08006ae0    0x180  uc_uart.o [1]
    .data                 inited   0x08006c60      0x8  FlashStateMachine.ScaleFclk.obj [3]
    .textrw               inited   0x08006c68      0x6  uc_system.o [1]
    __DLIB_PERTHREAD      inited   0x08006c70      0x4  errno.o [4]
    .data                 inited   0x08006c74      0x1  ecu_io.o [1]
    .data                 inited   0x08006c75      0x1  ecu_wdg.o [1]
    .data                 inited   0x08006c76      0x1  main.o [1]
    .data                 inited   0x08006c77      0x1  FlashStateMachine.SetActiveBank.obj [3]
                                 - 0x08006c78   0x6c78

"P2", part 2 of 3:                              0x4a00
  CSTACK                           0x08006c78   0x4000  <Block>
    CSTACK                uninit   0x08006c78   0x4000  <Block tail>
  SVC_STACK                        0x0800ac78    0x200  <Block>
    SVC_STACK             uninit   0x0800ac78    0x200  <Block tail>
  IRQ_STACK                        0x0800ae78    0x200  <Block>
    IRQ_STACK             uninit   0x0800ae78    0x200  <Block tail>
  FIQ_STACK                        0x0800b078    0x200  <Block>
    FIQ_STACK             uninit   0x0800b078    0x200  <Block tail>
  UND_STACK                        0x0800b278    0x200  <Block>
    UND_STACK             uninit   0x0800b278    0x200  <Block tail>
  ABT_STACK                        0x0800b478    0x200  <Block>
    ABT_STACK             uninit   0x0800b478    0x200  <Block tail>
                                 - 0x0800b678   0x4a00

"P2", part 3 of 3:                               0x518
  .bss                    zero     0x0800b678    0x230  app_Main10msMgr.o [1]
  .bss                    zero     0x0800b8a8     0xa0  app_Main1msMgr_data.o [1]
  .bss                    zero     0x0800b948     0x40  uc_dio.o [1]
  .bss                    zero     0x0800b988     0x30  app_Main100msMgr.o [1]
  .bss                    zero     0x0800b9b8     0x30  app_Main1msMgr.o [1]
  .bss                    zero     0x0800b9e8     0x30  app_Main50msMgr.o [1]
  .bss                    zero     0x0800ba18     0x30  uc_adc.o [1]
  .bss                    zero     0x0800ba48     0x2c  app_Main10msMgr.o [1]
  .bss                    zero     0x0800ba74      0x4  app_diag.o [1]
  .bss                    zero     0x0800ba78     0x20  app_Main10msMgr.o [1]
  .bss                    zero     0x0800ba98     0x10  ecu_diag.o [1]
  .bss                    zero     0x0800baa8      0x8  app_diag.o [1]
  .bss                    zero     0x0800bab0      0x8  app_diag_gf.o [1]
  .bss                    zero     0x0800bab8      0x8  app_diag_gf.o [1]
  .bss                    zero     0x0800bac0      0x8  app_diag_gf.o [1]
  .bss                    zero     0x0800bac8      0x8  app_diag_gf.o [1]
  .bss                    zero     0x0800bad0      0x8  app_diag_gf.o [1]
  .bss                    zero     0x0800bad8      0x8  app_Main100msMgr_data.o [1]
  .bss                    zero     0x0800bae0      0x8  app_Main50msMgr_data.o [1]
  .bss                    zero     0x0800bae8      0x8  rt_nonfinite.o [1]
  .bss                    zero     0x0800baf0      0x8  rt_nonfinite.o [1]
  .bss                    zero     0x0800baf8      0x8  rt_nonfinite.o [1]
  .bss                    zero     0x0800bb00      0x4  app_diag_gf.o [1]
  .bss                    zero     0x0800bb04      0x4  app_Main100msMgr_capi.o [1]
  .bss                    zero     0x0800bb08      0x4  app_Main10msMgr_capi.o [1]
  .bss                    zero     0x0800bb0c      0x4  app_Main1msMgr_capi.o [1]
  .bss                    zero     0x0800bb10      0x4  app_Main50msMgr_capi.o [1]
  .bss                    zero     0x0800bb14      0x4  ecu_diag.o [1]
  .bss                    zero     0x0800bb18      0x4  ecu_diag.o [1]
  .bss                    zero     0x0800bb1c      0x4  ecu_io.o [1]
  .bss                    zero     0x0800bb20      0x4  ecu_io.o [1]
  .bss                    zero     0x0800bb24      0x4  os.o [1]
  .bss                    zero     0x0800bb28      0x4  os.o [1]
  .bss                    zero     0x0800bb2c      0x4  os.o [1]
  .bss                    zero     0x0800bb30      0x4  rt_nonfinite.o [1]
  .bss                    zero     0x0800bb34      0x4  rt_nonfinite.o [1]
  .bss                    zero     0x0800bb38      0x4  rt_nonfinite.o [1]
  .bss                    zero     0x0800bb3c      0x4  uc_pwm.o [1]
  .bss                    zero     0x0800bb40      0x4  uc_pwm.o [1]
  .bss                    zero     0x0800bb44      0x4  uc_system.o [1]
  .bss                    zero     0x0800bb48      0x4  uc_system.o [1]
  .bss                    zero     0x0800bb4c      0x4  uc_timer.o [1]
  .bss                    zero     0x0800bb50      0x2  app_diag.o [1]
  .bss                    zero     0x0800bb52      0x2  app_diag.o [1]
  .bss                    zero     0x0800bb54      0x2  app_diag.o [1]
  .bss                    zero     0x0800bb56      0x2  app_diag.o [1]
  .bss                    zero     0x0800bb58      0x2  app_diag.o [1]
  .bss                    zero     0x0800bb5a      0x2  app_diag.o [1]
  .bss                    zero     0x0800bb5c      0x2  app_diag.o [1]
  .bss                    zero     0x0800bb5e      0x1  app_diag.o [1]
  .bss                    zero     0x0800bb5f      0x1  app_diag.o [1]
  .bss                    zero     0x0800bb60      0x1  app_diag.o [1]
  .bss                    zero     0x0800bb61      0x1  app_diag.o [1]
  .bss                    zero     0x0800bb62      0x1  app_diag.o [1]
  .bss                    zero     0x0800bb63      0x1  app_diag.o [1]
  .bss                    zero     0x0800bb64      0x1  app_diag.o [1]
  .bss                    zero     0x0800bb65      0x1  app_diag.o [1]
  .bss                    zero     0x0800bb66      0x1  app_diag_gf.o [1]
  .bss                    zero     0x0800bb67      0x1  app_diag_gf.o [1]
  .bss                    zero     0x0800bb68      0x1  app_diag_gf.o [1]
  .bss                    zero     0x0800bb69      0x1  app_diag_gf.o [1]
  .bss                    zero     0x0800bb6a      0x1  app_diag_gf.o [1]
  .bss                    zero     0x0800bb6b      0x1  app_diag_gf.o [1]
  .bss                    zero     0x0800bb6c      0x1  app_diag_gf.o [1]
  .bss                    zero     0x0800bb6d      0x1  app_diag_gf.o [1]
  .bss                    zero     0x0800bb6e      0x1  app_diag_gf.o [1]
  .bss                    zero     0x0800bb6f      0x1  app_diag_gf.o [1]
  .bss                    zero     0x0800bb70      0x1  app_diag_gf.o [1]
  .bss                    zero     0x0800bb71      0x1  app_diag_gf.o [1]
  .bss                    zero     0x0800bb72      0x1  app_diag_gf.o [1]
  .bss                    zero     0x0800bb73      0x1  app_diag_gf.o [1]
  .bss                    zero     0x0800bb74      0x1  app_FaultMgr.o [1]
  .bss                    zero     0x0800bb75      0x1  ecu_anlg.o [1]
  .bss                    zero     0x0800bb76      0x1  ecu_com.o [1]
  .bss                    zero     0x0800bb77      0x1  ecu_com.o [1]
  .bss                    zero     0x0800bb78      0x1  ecu_diag.o [1]
  .bss                    zero     0x0800bb79      0x1  ecu_diag.o [1]
  .bss                    zero     0x0800bb7a      0x1  ecu_diag.o [1]
  .bss                    zero     0x0800bb7b      0x1  ecu_io.o [1]
  .bss                    zero     0x0800bb7c      0x1  ecu_io.o [1]
  .bss                    zero     0x0800bb7d      0x1  ecu_io.o [1]
  .bss                    zero     0x0800bb7e      0x1  ecu_io.o [1]
  .bss                    zero     0x0800bb7f      0x1  ecu_io.o [1]
  .bss                    zero     0x0800bb80      0x1  ecu_io.o [1]
  .bss                    zero     0x0800bb81      0x1  ecu_io.o [1]
  .bss                    zero     0x0800bb82      0x1  ecu_io.o [1]
  .bss                    zero     0x0800bb83      0x1  ecu_mem.o [1]
  .bss                    zero     0x0800bb84      0x1  ecu_system.o [1]
  .bss                    zero     0x0800bb85      0x1  ecu_system.o [1]
  .bss                    zero     0x0800bb86      0x1  ecu_txcp.o [1]
  .bss                    zero     0x0800bb87      0x1  ecu_txcp.o [1]
  .bss                    zero     0x0800bb88      0x1  ecu_txcp.o [1]
  .bss                    zero     0x0800bb89      0x1  ecu_wdg.o [1]
  .bss                    zero     0x0800bb8a      0x1  os.o [1]
  .bss                    zero     0x0800bb8b      0x1  os.o [1]
  .bss                    zero     0x0800bb8c      0x1  uc_pwm.o [1]
  .bss                    zero     0x0800bb8d      0x1  uc_uart.o [1]
                                 - 0x0800bb8e    0x516

Absolute sections, part 1 of 90:                   0x4
  .noinit                 uninit   0xff0c0000      0x4  uc_spi.o [1]
                                 - 0xff0c0004      0x4

Absolute sections, part 2 of 90:                   0x4
  .noinit                 uninit   0xff0c0200      0x4  uc_spi.o [1]
                                 - 0xff0c0204      0x4

Absolute sections, part 3 of 90:                   0x4
  .noinit                 uninit   0xff0e0000      0x4  uc_spi.o [1]
                                 - 0xff0e0004      0x4

Absolute sections, part 4 of 90:                   0x4
  .noinit                 uninit   0xff0e0200      0x4  uc_spi.o [1]
                                 - 0xff0e0204      0x4

Absolute sections, part 5 of 90:                   0x4
  .noinit                 uninit   0xff1a0000      0x4  uc_can.o [1]
                                 - 0xff1a0004      0x4

Absolute sections, part 6 of 90:                   0x4
  .noinit                 uninit   0xff1c0000      0x4  uc_can.o [1]
                                 - 0xff1c0004      0x4

Absolute sections, part 7 of 90:                   0x4
  .noinit                 uninit   0xff1e0000      0x4  uc_can.o [1]
                                 - 0xff1e0004      0x4

Absolute sections, part 8 of 90:                   0x4
  .noinit                 uninit   0xff3a0000      0x4  uc_adc.o [1]
                                 - 0xff3a0004      0x4

Absolute sections, part 9 of 90:                   0x4
  .noinit                 uninit   0xff3e0000      0x4  uc_adc.o [1]
                                 - 0xff3e0004      0x4

Absolute sections, part 10 of 90:                  0x8
  .noinit                 uninit   0xfff7b800      0x4  uc_pwm.o [1]
  .noinit                 uninit   0xfff7b804      0x4  uc_pwm.o [1]
                                 - 0xfff7b808      0x8

Absolute sections, part 11 of 90:                 0x20
  .noinit                 uninit   0xfff7b84c      0x4  uc_pwm.o [1]
  .noinit                 uninit   0xfff7b850      0x4  uc_pwm.o [1]
  .noinit                 uninit   0xfff7b854      0x4  uc_dio.o [1]
  .noinit                 uninit   0xfff7b858      0x4  uc_dio.o [1]
  .noinit                 uninit   0xfff7b85c      0x4  uc_dio.o [1]
  .noinit                 uninit   0xfff7b860      0x4  uc_dio.o [1]
  .noinit                 uninit   0xfff7b864      0x4  uc_pwm.o [1]
  .noinit                 uninit   0xfff7b868      0x4  uc_pwm.o [1]
                                 - 0xfff7b86c     0x20

Absolute sections, part 12 of 90:                 0x20
  .noinit                 uninit   0xfff7b94c      0x4  uc_dio.o [1]
  .noinit                 uninit   0xfff7b950      0x4  uc_dio.o [1]
  .noinit                 uninit   0xfff7b954      0x4  uc_dio.o [1]
  .noinit                 uninit   0xfff7b958      0x4  uc_dio.o [1]
  .noinit                 uninit   0xfff7b95c      0x4  uc_dio.o [1]
  .noinit                 uninit   0xfff7b960      0x4  uc_dio.o [1]
  .noinit                 uninit   0xfff7b964      0x4  uc_dio.o [1]
  .noinit                 uninit   0xfff7b968      0x4  uc_dio.o [1]
                                 - 0xfff7b96c     0x20

Absolute sections, part 13 of 90:                  0x4
  .noinit                 uninit   0xfff7bc00      0x4  uc_dio.o [1]
                                 - 0xfff7bc04      0x4

Absolute sections, part 14 of 90:                  0xc
  .noinit                 uninit   0xfff7bc08      0x4  uc_dio.o [1]
  .noinit                 uninit   0xfff7bc0c      0x4  uc_dio.o [1]
  .noinit                 uninit   0xfff7bc10      0x4  uc_dio.o [1]
                                 - 0xfff7bc14      0xc

Absolute sections, part 15 of 90:                  0x8
  .noinit                 uninit   0xfff7bc18      0x4  uc_dio.o [1]
  .noinit                 uninit   0xfff7bc1c      0x4  uc_dio.o [1]
                                 - 0xfff7bc20      0x8

Absolute sections, part 16 of 90:                  0x8
  .noinit                 uninit   0xfff7bc24      0x4  uc_dio.o [1]
  .noinit                 uninit   0xfff7bc28      0x4  uc_dio.o [1]
                                 - 0xfff7bc2c      0x8

Absolute sections, part 17 of 90:                 0x40
  .noinit                 uninit   0xfff7bc34      0x4  uc_dio.o [1]
  .noinit                 uninit   0xfff7bc38      0x4  uc_dio.o [1]
  .noinit                 uninit   0xfff7bc3c      0x4  uc_dio.o [1]
  .noinit                 uninit   0xfff7bc40      0x4  uc_dio.o [1]
  .noinit                 uninit   0xfff7bc44      0x4  uc_dio.o [1]
  .noinit                 uninit   0xfff7bc48      0x4  uc_dio.o [1]
  .noinit                 uninit   0xfff7bc4c      0x4  uc_dio.o [1]
  .noinit                 uninit   0xfff7bc50      0x4  uc_dio.o [1]
  .noinit                 uninit   0xfff7bc54      0x4  uc_dio.o [1]
  .noinit                 uninit   0xfff7bc58      0x4  uc_dio.o [1]
  .noinit                 uninit   0xfff7bc5c      0x4  uc_dio.o [1]
  .noinit                 uninit   0xfff7bc60      0x4  uc_dio.o [1]
  .noinit                 uninit   0xfff7bc64      0x4  uc_dio.o [1]
  .noinit                 uninit   0xfff7bc68      0x4  uc_dio.o [1]
  .noinit                 uninit   0xfff7bc6c      0x4  uc_dio.o [1]
  .noinit                 uninit   0xfff7bc70      0x4  uc_dio.o [1]
                                 - 0xfff7bc74     0x40

Absolute sections, part 18 of 90:                0x140
  .noinit                 uninit   0xfff7c000      0x4  uc_adc.o [1]
  .noinit                 uninit   0xfff7c004      0x4  uc_adc.o [1]
  .noinit                 uninit   0xfff7c008      0x4  uc_adc.o [1]
  .noinit                 uninit   0xfff7c00c      0x4  uc_adc.o [1]
  .noinit                 uninit   0xfff7c010      0x4  uc_adc.o [1]
  .noinit                 uninit   0xfff7c014      0x4  uc_adc.o [1]
  .noinit                 uninit   0xfff7c018      0x4  uc_adc.o [1]
  .noinit                 uninit   0xfff7c01c      0x4  uc_adc.o [1]
  .noinit                 uninit   0xfff7c020      0x4  uc_adc.o [1]
  .noinit                 uninit   0xfff7c024      0x4  uc_adc.o [1]
  .noinit                 uninit   0xfff7c028      0x4  uc_adc.o [1]
  .noinit                 uninit   0xfff7c02c      0x4  uc_adc.o [1]
  .noinit                 uninit   0xfff7c030      0x4  uc_adc.o [1]
  .noinit                 uninit   0xfff7c034      0x4  uc_adc.o [1]
  .noinit                 uninit   0xfff7c038      0x4  uc_adc.o [1]
  .noinit                 uninit   0xfff7c03c      0x4  uc_adc.o [1]
  .noinit                 uninit   0xfff7c040      0x4  uc_adc.o [1]
  .noinit                 uninit   0xfff7c044      0x4  uc_adc.o [1]
  .noinit                 uninit   0xfff7c048      0x4  uc_adc.o [1]
  .noinit                 uninit   0xfff7c04c      0x4  uc_adc.o [1]
  .noinit                 uninit   0xfff7c050      0x4  uc_adc.o [1]
  .noinit                 uninit   0xfff7c054      0x4  uc_adc.o [1]
  .noinit                 uninit   0xfff7c058      0x4  uc_adc.o [1]
  .noinit                 uninit   0xfff7c05c      0x4  uc_adc.o [1]
  .noinit                 uninit   0xfff7c060      0x4  uc_adc.o [1]
  .noinit                 uninit   0xfff7c064      0x4  uc_adc.o [1]
  .noinit                 uninit   0xfff7c068      0x4  uc_adc.o [1]
  .noinit                 uninit   0xfff7c06c      0x4  uc_adc.o [1]
  .noinit                 uninit   0xfff7c070      0x4  uc_adc.o [1]
  .noinit                 uninit   0xfff7c074      0x4  uc_adc.o [1]
  .noinit                 uninit   0xfff7c078      0x4  uc_adc.o [1]
  .noinit                 uninit   0xfff7c07c      0x4  uc_adc.o [1]
  .noinit                 uninit   0xfff7c080      0x4  uc_adc.o [1]
  .noinit                 uninit   0xfff7c084      0x4  uc_adc.o [1]
  .noinit                 uninit   0xfff7c088      0x4  uc_adc.o [1]
  .noinit                 uninit   0xfff7c08c      0x4  uc_adc.o [1]
  .noinit                 uninit   0xfff7c090      0x4  uc_adc.o [1]
  .noinit                 uninit   0xfff7c094      0x4  uc_adc.o [1]
  .noinit                 uninit   0xfff7c098      0x4  uc_adc.o [1]
  .noinit                 uninit   0xfff7c09c      0x4  uc_adc.o [1]
  .noinit                 uninit   0xfff7c0a0      0x4  uc_adc.o [1]
  .noinit                 uninit   0xfff7c0a4      0x4  uc_adc.o [1]
  .noinit                 uninit   0xfff7c0a8      0x4  uc_adc.o [1]
  .noinit                 uninit   0xfff7c0ac      0x4  uc_adc.o [1]
  .noinit                 uninit   0xfff7c0b0      0x4  uc_adc.o [1]
  .noinit                 uninit   0xfff7c0b4      0x4  uc_adc.o [1]
  .noinit                 uninit   0xfff7c0b8      0x4  uc_adc.o [1]
  .noinit                 uninit   0xfff7c0bc      0x4  uc_adc.o [1]
  .noinit                 uninit   0xfff7c0c0      0x4  uc_adc.o [1]
  .noinit                 uninit   0xfff7c0c4      0x4  uc_adc.o [1]
  .noinit                 uninit   0xfff7c0c8      0x4  uc_adc.o [1]
  .noinit                 uninit   0xfff7c0cc      0x4  uc_adc.o [1]
  .noinit                 uninit   0xfff7c0d0      0x4  uc_adc.o [1]
  .noinit                 uninit   0xfff7c0d4      0x4  uc_adc.o [1]
  .noinit                 uninit   0xfff7c0d8      0x4  uc_adc.o [1]
  .noinit                 uninit   0xfff7c0dc      0x4  uc_adc.o [1]
  .noinit                 uninit   0xfff7c0e0      0x4  uc_adc.o [1]
  .noinit                 uninit   0xfff7c0e4      0x4  uc_adc.o [1]
  .noinit                 uninit   0xfff7c0e8      0x4  uc_adc.o [1]
  .noinit                 uninit   0xfff7c0ec      0x4  uc_adc.o [1]
  .noinit                 uninit   0xfff7c0f0      0x4  uc_adc.o [1]
  .noinit                 uninit   0xfff7c0f4      0x4  uc_adc.o [1]
  .noinit                 uninit   0xfff7c0f8      0x4  uc_adc.o [1]
  .noinit                 uninit   0xfff7c0fc      0x4  uc_dio.o [1]
  .noinit                 uninit   0xfff7c100      0x4  uc_dio.o [1]
  .noinit                 uninit   0xfff7c104      0x4  uc_dio.o [1]
  .noinit                 uninit   0xfff7c108      0x4  uc_dio.o [1]
  .noinit                 uninit   0xfff7c10c      0x4  uc_dio.o [1]
  .noinit                 uninit   0xfff7c110      0x4  uc_dio.o [1]
  .noinit                 uninit   0xfff7c114      0x4  uc_dio.o [1]
  .noinit                 uninit   0xfff7c118      0x4  uc_dio.o [1]
  .noinit                 uninit   0xfff7c11c      0x4  uc_adc.o [1]
  .noinit                 uninit   0xfff7c120      0x4  uc_adc.o [1]
  .noinit                 uninit   0xfff7c124      0x4  uc_adc.o [1]
  .noinit                 uninit   0xfff7c128      0x4  uc_adc.o [1]
  .noinit                 uninit   0xfff7c12c      0x4  uc_adc.o [1]
  .noinit                 uninit   0xfff7c130      0x4  uc_adc.o [1]
  .noinit                 uninit   0xfff7c134      0x4  uc_adc.o [1]
  .noinit                 uninit   0xfff7c138      0x4  uc_adc.o [1]
  .noinit                 uninit   0xfff7c13c      0x4  uc_adc.o [1]
                                 - 0xfff7c140    0x140

Absolute sections, part 19 of 90:                 0x34
  .noinit                 uninit   0xfff7c158      0x4  uc_adc.o [1]
  .noinit                 uninit   0xfff7c15c      0x4  uc_adc.o [1]
  .noinit                 uninit   0xfff7c160      0x4  uc_adc.o [1]
  .noinit                 uninit   0xfff7c164      0x4  uc_adc.o [1]
  .noinit                 uninit   0xfff7c168      0x4  uc_adc.o [1]
  .noinit                 uninit   0xfff7c16c      0x4  uc_adc.o [1]
  .noinit                 uninit   0xfff7c170      0x4  uc_adc.o [1]
  .noinit                 uninit   0xfff7c174      0x4  uc_adc.o [1]
  .noinit                 uninit   0xfff7c178      0x4  uc_adc.o [1]
  .noinit                 uninit   0xfff7c17c      0x4  uc_adc.o [1]
  .noinit                 uninit   0xfff7c180      0x4  uc_adc.o [1]
  .noinit                 uninit   0xfff7c184      0x4  uc_adc.o [1]
  .noinit                 uninit   0xfff7c188      0x4  uc_adc.o [1]
                                 - 0xfff7c18c     0x34

Absolute sections, part 20 of 90:                0x140
  .noinit                 uninit   0xfff7c200      0x4  uc_adc.o [1]
  .noinit                 uninit   0xfff7c204      0x4  uc_adc.o [1]
  .noinit                 uninit   0xfff7c208      0x4  uc_adc.o [1]
  .noinit                 uninit   0xfff7c20c      0x4  uc_adc.o [1]
  .noinit                 uninit   0xfff7c210      0x4  uc_adc.o [1]
  .noinit                 uninit   0xfff7c214      0x4  uc_adc.o [1]
  .noinit                 uninit   0xfff7c218      0x4  uc_adc.o [1]
  .noinit                 uninit   0xfff7c21c      0x4  uc_adc.o [1]
  .noinit                 uninit   0xfff7c220      0x4  uc_adc.o [1]
  .noinit                 uninit   0xfff7c224      0x4  uc_adc.o [1]
  .noinit                 uninit   0xfff7c228      0x4  uc_adc.o [1]
  .noinit                 uninit   0xfff7c22c      0x4  uc_adc.o [1]
  .noinit                 uninit   0xfff7c230      0x4  uc_adc.o [1]
  .noinit                 uninit   0xfff7c234      0x4  uc_adc.o [1]
  .noinit                 uninit   0xfff7c238      0x4  uc_adc.o [1]
  .noinit                 uninit   0xfff7c23c      0x4  uc_adc.o [1]
  .noinit                 uninit   0xfff7c240      0x4  uc_adc.o [1]
  .noinit                 uninit   0xfff7c244      0x4  uc_adc.o [1]
  .noinit                 uninit   0xfff7c248      0x4  uc_adc.o [1]
  .noinit                 uninit   0xfff7c24c      0x4  uc_adc.o [1]
  .noinit                 uninit   0xfff7c250      0x4  uc_adc.o [1]
  .noinit                 uninit   0xfff7c254      0x4  uc_adc.o [1]
  .noinit                 uninit   0xfff7c258      0x4  uc_adc.o [1]
  .noinit                 uninit   0xfff7c25c      0x4  uc_adc.o [1]
  .noinit                 uninit   0xfff7c260      0x4  uc_adc.o [1]
  .noinit                 uninit   0xfff7c264      0x4  uc_adc.o [1]
  .noinit                 uninit   0xfff7c268      0x4  uc_adc.o [1]
  .noinit                 uninit   0xfff7c26c      0x4  uc_adc.o [1]
  .noinit                 uninit   0xfff7c270      0x4  uc_adc.o [1]
  .noinit                 uninit   0xfff7c274      0x4  uc_adc.o [1]
  .noinit                 uninit   0xfff7c278      0x4  uc_adc.o [1]
  .noinit                 uninit   0xfff7c27c      0x4  uc_adc.o [1]
  .noinit                 uninit   0xfff7c280      0x4  uc_adc.o [1]
  .noinit                 uninit   0xfff7c284      0x4  uc_adc.o [1]
  .noinit                 uninit   0xfff7c288      0x4  uc_adc.o [1]
  .noinit                 uninit   0xfff7c28c      0x4  uc_adc.o [1]
  .noinit                 uninit   0xfff7c290      0x4  uc_adc.o [1]
  .noinit                 uninit   0xfff7c294      0x4  uc_adc.o [1]
  .noinit                 uninit   0xfff7c298      0x4  uc_adc.o [1]
  .noinit                 uninit   0xfff7c29c      0x4  uc_adc.o [1]
  .noinit                 uninit   0xfff7c2a0      0x4  uc_adc.o [1]
  .noinit                 uninit   0xfff7c2a4      0x4  uc_adc.o [1]
  .noinit                 uninit   0xfff7c2a8      0x4  uc_adc.o [1]
  .noinit                 uninit   0xfff7c2ac      0x4  uc_adc.o [1]
  .noinit                 uninit   0xfff7c2b0      0x4  uc_adc.o [1]
  .noinit                 uninit   0xfff7c2b4      0x4  uc_adc.o [1]
  .noinit                 uninit   0xfff7c2b8      0x4  uc_adc.o [1]
  .noinit                 uninit   0xfff7c2bc      0x4  uc_adc.o [1]
  .noinit                 uninit   0xfff7c2c0      0x4  uc_adc.o [1]
  .noinit                 uninit   0xfff7c2c4      0x4  uc_adc.o [1]
  .noinit                 uninit   0xfff7c2c8      0x4  uc_adc.o [1]
  .noinit                 uninit   0xfff7c2cc      0x4  uc_adc.o [1]
  .noinit                 uninit   0xfff7c2d0      0x4  uc_adc.o [1]
  .noinit                 uninit   0xfff7c2d4      0x4  uc_adc.o [1]
  .noinit                 uninit   0xfff7c2d8      0x4  uc_adc.o [1]
  .noinit                 uninit   0xfff7c2dc      0x4  uc_adc.o [1]
  .noinit                 uninit   0xfff7c2e0      0x4  uc_adc.o [1]
  .noinit                 uninit   0xfff7c2e4      0x4  uc_adc.o [1]
  .noinit                 uninit   0xfff7c2e8      0x4  uc_adc.o [1]
  .noinit                 uninit   0xfff7c2ec      0x4  uc_adc.o [1]
  .noinit                 uninit   0xfff7c2f0      0x4  uc_adc.o [1]
  .noinit                 uninit   0xfff7c2f4      0x4  uc_adc.o [1]
  .noinit                 uninit   0xfff7c2f8      0x4  uc_adc.o [1]
  .noinit                 uninit   0xfff7c2fc      0x4  uc_adc.o [1]
  .noinit                 uninit   0xfff7c300      0x4  uc_adc.o [1]
  .noinit                 uninit   0xfff7c304      0x4  uc_adc.o [1]
  .noinit                 uninit   0xfff7c308      0x4  uc_adc.o [1]
  .noinit                 uninit   0xfff7c30c      0x4  uc_adc.o [1]
  .noinit                 uninit   0xfff7c310      0x4  uc_adc.o [1]
  .noinit                 uninit   0xfff7c314      0x4  uc_adc.o [1]
  .noinit                 uninit   0xfff7c318      0x4  uc_adc.o [1]
  .noinit                 uninit   0xfff7c31c      0x4  uc_adc.o [1]
  .noinit                 uninit   0xfff7c320      0x4  uc_adc.o [1]
  .noinit                 uninit   0xfff7c324      0x4  uc_adc.o [1]
  .noinit                 uninit   0xfff7c328      0x4  uc_adc.o [1]
  .noinit                 uninit   0xfff7c32c      0x4  uc_adc.o [1]
  .noinit                 uninit   0xfff7c330      0x4  uc_adc.o [1]
  .noinit                 uninit   0xfff7c334      0x4  uc_adc.o [1]
  .noinit                 uninit   0xfff7c338      0x4  uc_adc.o [1]
  .noinit                 uninit   0xfff7c33c      0x4  uc_adc.o [1]
                                 - 0xfff7c340    0x140

Absolute sections, part 21 of 90:                 0x34
  .noinit                 uninit   0xfff7c358      0x4  uc_adc.o [1]
  .noinit                 uninit   0xfff7c35c      0x4  uc_adc.o [1]
  .noinit                 uninit   0xfff7c360      0x4  uc_adc.o [1]
  .noinit                 uninit   0xfff7c364      0x4  uc_adc.o [1]
  .noinit                 uninit   0xfff7c368      0x4  uc_adc.o [1]
  .noinit                 uninit   0xfff7c36c      0x4  uc_adc.o [1]
  .noinit                 uninit   0xfff7c370      0x4  uc_adc.o [1]
  .noinit                 uninit   0xfff7c374      0x4  uc_adc.o [1]
  .noinit                 uninit   0xfff7c378      0x4  uc_adc.o [1]
  .noinit                 uninit   0xfff7c37c      0x4  uc_adc.o [1]
  .noinit                 uninit   0xfff7c380      0x4  uc_adc.o [1]
  .noinit                 uninit   0xfff7c384      0x4  uc_adc.o [1]
  .noinit                 uninit   0xfff7c388      0x4  uc_adc.o [1]
                                 - 0xfff7c38c     0x34

Absolute sections, part 22 of 90:                 0x18
  .noinit                 uninit   0xfff7dc00      0x4  uc_can.o [1]
  .noinit                 uninit   0xfff7dc04      0x4  uc_can.o [1]
  .noinit                 uninit   0xfff7dc08      0x4  uc_can.o [1]
  .noinit                 uninit   0xfff7dc0c      0x4  uc_can.o [1]
  .noinit                 uninit   0xfff7dc10      0x4  uc_can.o [1]
  .noinit                 uninit   0xfff7dc14      0x4  uc_can.o [1]
                                 - 0xfff7dc18     0x18

Absolute sections, part 23 of 90:                  0x4
  .noinit                 uninit   0xfff7dc1c      0x4  uc_can.o [1]
                                 - 0xfff7dc20      0x4

Absolute sections, part 24 of 90:                 0x54
  .noinit                 uninit   0xfff7dc80      0x4  uc_can.o [1]
  .noinit                 uninit   0xfff7dc84      0x4  uc_can.o [1]
  .noinit                 uninit   0xfff7dc88      0x4  uc_can.o [1]
  .noinit                 uninit   0xfff7dc8c      0x4  uc_can.o [1]
  .noinit                 uninit   0xfff7dc90      0x4  uc_can.o [1]
  .noinit                 uninit   0xfff7dc94      0x4  uc_can.o [1]
  .noinit                 uninit   0xfff7dc98      0x4  uc_can.o [1]
  .noinit                 uninit   0xfff7dc9c      0x4  uc_can.o [1]
  .noinit                 uninit   0xfff7dca0      0x4  uc_can.o [1]
  .noinit                 uninit   0xfff7dca4      0x4  uc_can.o [1]
  .noinit                 uninit   0xfff7dca8      0x4  uc_can.o [1]
  .noinit                 uninit   0xfff7dcac      0x4  uc_can.o [1]
  .noinit                 uninit   0xfff7dcb0      0x4  uc_can.o [1]
  .noinit                 uninit   0xfff7dcb4      0x4  uc_can.o [1]
  .noinit                 uninit   0xfff7dcb8      0x4  uc_can.o [1]
  .noinit                 uninit   0xfff7dcbc      0x4  uc_can.o [1]
  .noinit                 uninit   0xfff7dcc0      0x4  uc_can.o [1]
  .noinit                 uninit   0xfff7dcc4      0x4  uc_can.o [1]
  .noinit                 uninit   0xfff7dcc8      0x4  uc_can.o [1]
  .noinit                 uninit   0xfff7dccc      0x4  uc_can.o [1]
  .noinit                 uninit   0xfff7dcd0      0x4  uc_can.o [1]
                                 - 0xfff7dcd4     0x54

Absolute sections, part 25 of 90:                 0x10
  .noinit                 uninit   0xfff7dcd8      0x4  uc_can.o [1]
  .noinit                 uninit   0xfff7dcdc      0x4  uc_can.o [1]
  .noinit                 uninit   0xfff7dce0      0x4  uc_can.o [1]
  .noinit                 uninit   0xfff7dce4      0x4  uc_can.o [1]
                                 - 0xfff7dce8     0x10

Absolute sections, part 26 of 90:                 0x18
  .noinit                 uninit   0xfff7dd00      0x4  uc_can.o [1]
  .noinit                 uninit   0xfff7dd04      0x4  uc_can.o [1]
  .noinit                 uninit   0xfff7dd08      0x4  uc_can.o [1]
  .noinit                 uninit   0xfff7dd0c      0x4  uc_can.o [1]
  .noinit                 uninit   0xfff7dd10      0x4  uc_can.o [1]
  .noinit                 uninit   0xfff7dd14      0x4  uc_can.o [1]
                                 - 0xfff7dd18     0x18

Absolute sections, part 27 of 90:                 0x18
  .noinit                 uninit   0xfff7dd20      0x4  uc_can.o [1]
  .noinit                 uninit   0xfff7dd24      0x4  uc_can.o [1]
  .noinit                 uninit   0xfff7dd28      0x4  uc_can.o [1]
  .noinit                 uninit   0xfff7dd2c      0x4  uc_can.o [1]
  .noinit                 uninit   0xfff7dd30      0x4  uc_can.o [1]
  .noinit                 uninit   0xfff7dd34      0x4  uc_can.o [1]
                                 - 0xfff7dd38     0x18

Absolute sections, part 28 of 90:                 0x18
  .noinit                 uninit   0xfff7dd40      0x4  uc_can.o [1]
  .noinit                 uninit   0xfff7dd44      0x4  uc_can.o [1]
  .noinit                 uninit   0xfff7dd48      0x4  uc_can.o [1]
  .noinit                 uninit   0xfff7dd4c      0x4  uc_can.o [1]
  .noinit                 uninit   0xfff7dd50      0x4  uc_can.o [1]
  .noinit                 uninit   0xfff7dd54      0x4  uc_can.o [1]
                                 - 0xfff7dd58     0x18

Absolute sections, part 29 of 90:                 0x10
  .noinit                 uninit   0xfff7dd60      0x4  uc_can.o [1]
  .noinit                 uninit   0xfff7dd64      0x4  uc_can.o [1]
  .noinit                 uninit   0xfff7dd68      0x4  uc_can.o [1]
  .noinit                 uninit   0xfff7dd6c      0x4  uc_can.o [1]
                                 - 0xfff7dd70     0x10

Absolute sections, part 30 of 90:                  0x8
  .noinit                 uninit   0xfff7dde0      0x4  uc_can.o [1]
  .noinit                 uninit   0xfff7dde4      0x4  uc_can.o [1]
                                 - 0xfff7dde8      0x8

Absolute sections, part 31 of 90:                 0x18
  .noinit                 uninit   0xfff7de00      0x4  uc_can.o [1]
  .noinit                 uninit   0xfff7de04      0x4  uc_can.o [1]
  .noinit                 uninit   0xfff7de08      0x4  uc_can.o [1]
  .noinit                 uninit   0xfff7de0c      0x4  uc_can.o [1]
  .noinit                 uninit   0xfff7de10      0x4  uc_can.o [1]
  .noinit                 uninit   0xfff7de14      0x4  uc_can.o [1]
                                 - 0xfff7de18     0x18

Absolute sections, part 32 of 90:                  0x4
  .noinit                 uninit   0xfff7de1c      0x4  uc_can.o [1]
                                 - 0xfff7de20      0x4

Absolute sections, part 33 of 90:                 0x54
  .noinit                 uninit   0xfff7de80      0x4  uc_can.o [1]
  .noinit                 uninit   0xfff7de84      0x4  uc_can.o [1]
  .noinit                 uninit   0xfff7de88      0x4  uc_can.o [1]
  .noinit                 uninit   0xfff7de8c      0x4  uc_can.o [1]
  .noinit                 uninit   0xfff7de90      0x4  uc_can.o [1]
  .noinit                 uninit   0xfff7de94      0x4  uc_can.o [1]
  .noinit                 uninit   0xfff7de98      0x4  uc_can.o [1]
  .noinit                 uninit   0xfff7de9c      0x4  uc_can.o [1]
  .noinit                 uninit   0xfff7dea0      0x4  uc_can.o [1]
  .noinit                 uninit   0xfff7dea4      0x4  uc_can.o [1]
  .noinit                 uninit   0xfff7dea8      0x4  uc_can.o [1]
  .noinit                 uninit   0xfff7deac      0x4  uc_can.o [1]
  .noinit                 uninit   0xfff7deb0      0x4  uc_can.o [1]
  .noinit                 uninit   0xfff7deb4      0x4  uc_can.o [1]
  .noinit                 uninit   0xfff7deb8      0x4  uc_can.o [1]
  .noinit                 uninit   0xfff7debc      0x4  uc_can.o [1]
  .noinit                 uninit   0xfff7dec0      0x4  uc_can.o [1]
  .noinit                 uninit   0xfff7dec4      0x4  uc_can.o [1]
  .noinit                 uninit   0xfff7dec8      0x4  uc_can.o [1]
  .noinit                 uninit   0xfff7decc      0x4  uc_can.o [1]
  .noinit                 uninit   0xfff7ded0      0x4  uc_can.o [1]
                                 - 0xfff7ded4     0x54

Absolute sections, part 34 of 90:                 0x10
  .noinit                 uninit   0xfff7ded8      0x4  uc_can.o [1]
  .noinit                 uninit   0xfff7dedc      0x4  uc_can.o [1]
  .noinit                 uninit   0xfff7dee0      0x4  uc_can.o [1]
  .noinit                 uninit   0xfff7dee4      0x4  uc_can.o [1]
                                 - 0xfff7dee8     0x10

Absolute sections, part 35 of 90:                 0x18
  .noinit                 uninit   0xfff7df00      0x4  uc_can.o [1]
  .noinit                 uninit   0xfff7df04      0x4  uc_can.o [1]
  .noinit                 uninit   0xfff7df08      0x4  uc_can.o [1]
  .noinit                 uninit   0xfff7df0c      0x4  uc_can.o [1]
  .noinit                 uninit   0xfff7df10      0x4  uc_can.o [1]
  .noinit                 uninit   0xfff7df14      0x4  uc_can.o [1]
                                 - 0xfff7df18     0x18

Absolute sections, part 36 of 90:                 0x18
  .noinit                 uninit   0xfff7df20      0x4  uc_can.o [1]
  .noinit                 uninit   0xfff7df24      0x4  uc_can.o [1]
  .noinit                 uninit   0xfff7df28      0x4  uc_can.o [1]
  .noinit                 uninit   0xfff7df2c      0x4  uc_can.o [1]
  .noinit                 uninit   0xfff7df30      0x4  uc_can.o [1]
  .noinit                 uninit   0xfff7df34      0x4  uc_can.o [1]
                                 - 0xfff7df38     0x18

Absolute sections, part 37 of 90:                 0x18
  .noinit                 uninit   0xfff7df40      0x4  uc_can.o [1]
  .noinit                 uninit   0xfff7df44      0x4  uc_can.o [1]
  .noinit                 uninit   0xfff7df48      0x4  uc_can.o [1]
  .noinit                 uninit   0xfff7df4c      0x4  uc_can.o [1]
  .noinit                 uninit   0xfff7df50      0x4  uc_can.o [1]
  .noinit                 uninit   0xfff7df54      0x4  uc_can.o [1]
                                 - 0xfff7df58     0x18

Absolute sections, part 38 of 90:                 0x10
  .noinit                 uninit   0xfff7df60      0x4  uc_can.o [1]
  .noinit                 uninit   0xfff7df64      0x4  uc_can.o [1]
  .noinit                 uninit   0xfff7df68      0x4  uc_can.o [1]
  .noinit                 uninit   0xfff7df6c      0x4  uc_can.o [1]
                                 - 0xfff7df70     0x10

Absolute sections, part 39 of 90:                  0x8
  .noinit                 uninit   0xfff7dfe0      0x4  uc_can.o [1]
  .noinit                 uninit   0xfff7dfe4      0x4  uc_can.o [1]
                                 - 0xfff7dfe8      0x8

Absolute sections, part 40 of 90:                 0x18
  .noinit                 uninit   0xfff7e000      0x4  uc_can.o [1]
  .noinit                 uninit   0xfff7e004      0x4  uc_can.o [1]
  .noinit                 uninit   0xfff7e008      0x4  uc_can.o [1]
  .noinit                 uninit   0xfff7e00c      0x4  uc_can.o [1]
  .noinit                 uninit   0xfff7e010      0x4  uc_can.o [1]
  .noinit                 uninit   0xfff7e014      0x4  uc_can.o [1]
                                 - 0xfff7e018     0x18

Absolute sections, part 41 of 90:                  0x4
  .noinit                 uninit   0xfff7e01c      0x4  uc_can.o [1]
                                 - 0xfff7e020      0x4

Absolute sections, part 42 of 90:                 0x54
  .noinit                 uninit   0xfff7e080      0x4  uc_can.o [1]
  .noinit                 uninit   0xfff7e084      0x4  uc_can.o [1]
  .noinit                 uninit   0xfff7e088      0x4  uc_can.o [1]
  .noinit                 uninit   0xfff7e08c      0x4  uc_can.o [1]
  .noinit                 uninit   0xfff7e090      0x4  uc_can.o [1]
  .noinit                 uninit   0xfff7e094      0x4  uc_can.o [1]
  .noinit                 uninit   0xfff7e098      0x4  uc_can.o [1]
  .noinit                 uninit   0xfff7e09c      0x4  uc_can.o [1]
  .noinit                 uninit   0xfff7e0a0      0x4  uc_can.o [1]
  .noinit                 uninit   0xfff7e0a4      0x4  uc_can.o [1]
  .noinit                 uninit   0xfff7e0a8      0x4  uc_can.o [1]
  .noinit                 uninit   0xfff7e0ac      0x4  uc_can.o [1]
  .noinit                 uninit   0xfff7e0b0      0x4  uc_can.o [1]
  .noinit                 uninit   0xfff7e0b4      0x4  uc_can.o [1]
  .noinit                 uninit   0xfff7e0b8      0x4  uc_can.o [1]
  .noinit                 uninit   0xfff7e0bc      0x4  uc_can.o [1]
  .noinit                 uninit   0xfff7e0c0      0x4  uc_can.o [1]
  .noinit                 uninit   0xfff7e0c4      0x4  uc_can.o [1]
  .noinit                 uninit   0xfff7e0c8      0x4  uc_can.o [1]
  .noinit                 uninit   0xfff7e0cc      0x4  uc_can.o [1]
  .noinit                 uninit   0xfff7e0d0      0x4  uc_can.o [1]
                                 - 0xfff7e0d4     0x54

Absolute sections, part 43 of 90:                 0x10
  .noinit                 uninit   0xfff7e0d8      0x4  uc_can.o [1]
  .noinit                 uninit   0xfff7e0dc      0x4  uc_can.o [1]
  .noinit                 uninit   0xfff7e0e0      0x4  uc_can.o [1]
  .noinit                 uninit   0xfff7e0e4      0x4  uc_can.o [1]
                                 - 0xfff7e0e8     0x10

Absolute sections, part 44 of 90:                 0x18
  .noinit                 uninit   0xfff7e100      0x4  uc_can.o [1]
  .noinit                 uninit   0xfff7e104      0x4  uc_can.o [1]
  .noinit                 uninit   0xfff7e108      0x4  uc_can.o [1]
  .noinit                 uninit   0xfff7e10c      0x4  uc_can.o [1]
  .noinit                 uninit   0xfff7e110      0x4  uc_can.o [1]
  .noinit                 uninit   0xfff7e114      0x4  uc_can.o [1]
                                 - 0xfff7e118     0x18

Absolute sections, part 45 of 90:                 0x18
  .noinit                 uninit   0xfff7e120      0x4  uc_can.o [1]
  .noinit                 uninit   0xfff7e124      0x4  uc_can.o [1]
  .noinit                 uninit   0xfff7e128      0x4  uc_can.o [1]
  .noinit                 uninit   0xfff7e12c      0x4  uc_can.o [1]
  .noinit                 uninit   0xfff7e130      0x4  uc_can.o [1]
  .noinit                 uninit   0xfff7e134      0x4  uc_can.o [1]
                                 - 0xfff7e138     0x18

Absolute sections, part 46 of 90:                 0x18
  .noinit                 uninit   0xfff7e140      0x4  uc_can.o [1]
  .noinit                 uninit   0xfff7e144      0x4  uc_can.o [1]
  .noinit                 uninit   0xfff7e148      0x4  uc_can.o [1]
  .noinit                 uninit   0xfff7e14c      0x4  uc_can.o [1]
  .noinit                 uninit   0xfff7e150      0x4  uc_can.o [1]
  .noinit                 uninit   0xfff7e154      0x4  uc_can.o [1]
                                 - 0xfff7e158     0x18

Absolute sections, part 47 of 90:                 0x10
  .noinit                 uninit   0xfff7e160      0x4  uc_can.o [1]
  .noinit                 uninit   0xfff7e164      0x4  uc_can.o [1]
  .noinit                 uninit   0xfff7e168      0x4  uc_can.o [1]
  .noinit                 uninit   0xfff7e16c      0x4  uc_can.o [1]
                                 - 0xfff7e170     0x10

Absolute sections, part 48 of 90:                  0x8
  .noinit                 uninit   0xfff7e1e0      0x4  uc_can.o [1]
  .noinit                 uninit   0xfff7e1e4      0x4  uc_can.o [1]
                                 - 0xfff7e1e8      0x8

Absolute sections, part 49 of 90:                  0x8
  .noinit                 uninit   0xfff7e400      0x4  uc_uart.o [1]
  .noinit                 uninit   0xfff7e404      0x4  uc_uart.o [1]
                                 - 0xfff7e408      0x8

Absolute sections, part 50 of 90:                 0x54
  .noinit                 uninit   0xfff7e40c      0x4  uc_uart.o [1]
  .noinit                 uninit   0xfff7e410      0x4  uc_uart.o [1]
  .noinit                 uninit   0xfff7e414      0x4  uc_uart.o [1]
  .noinit                 uninit   0xfff7e418      0x4  uc_uart.o [1]
  .noinit                 uninit   0xfff7e41c      0x4  uc_uart.o [1]
  .noinit                 uninit   0xfff7e420      0x4  uc_uart.o [1]
  .noinit                 uninit   0xfff7e424      0x4  uc_uart.o [1]
  .noinit                 uninit   0xfff7e428      0x4  uc_uart.o [1]
  .noinit                 uninit   0xfff7e42c      0x4  uc_uart.o [1]
  .noinit                 uninit   0xfff7e430      0x4  uc_uart.o [1]
  .noinit                 uninit   0xfff7e434      0x4  uc_uart.o [1]
  .noinit                 uninit   0xfff7e438      0x4  uc_uart.o [1]
  .noinit                 uninit   0xfff7e43c      0x4  uc_uart.o [1]
  .noinit                 uninit   0xfff7e440      0x4  uc_uart.o [1]
  .noinit                 uninit   0xfff7e444      0x4  uc_uart.o [1]
  .noinit                 uninit   0xfff7e448      0x4  uc_uart.o [1]
  .noinit                 uninit   0xfff7e44c      0x4  uc_uart.o [1]
  .noinit                 uninit   0xfff7e450      0x4  uc_uart.o [1]
  .noinit                 uninit   0xfff7e454      0x4  uc_uart.o [1]
  .noinit                 uninit   0xfff7e458      0x4  uc_uart.o [1]
  .noinit                 uninit   0xfff7e45c      0x4  uc_uart.o [1]
                                 - 0xfff7e460     0x54

Absolute sections, part 51 of 90:                  0x4
  .noinit                 uninit   0xfff7e490      0x4  uc_uart.o [1]
                                 - 0xfff7e494      0x4

Absolute sections, part 52 of 90:                  0x8
  .noinit                 uninit   0xfff7e500      0x4  uc_uart.o [1]
  .noinit                 uninit   0xfff7e504      0x4  uc_uart.o [1]
                                 - 0xfff7e508      0x8

Absolute sections, part 53 of 90:                 0x54
  .noinit                 uninit   0xfff7e50c      0x4  uc_uart.o [1]
  .noinit                 uninit   0xfff7e510      0x4  uc_uart.o [1]
  .noinit                 uninit   0xfff7e514      0x4  uc_uart.o [1]
  .noinit                 uninit   0xfff7e518      0x4  uc_uart.o [1]
  .noinit                 uninit   0xfff7e51c      0x4  uc_uart.o [1]
  .noinit                 uninit   0xfff7e520      0x4  uc_uart.o [1]
  .noinit                 uninit   0xfff7e524      0x4  uc_uart.o [1]
  .noinit                 uninit   0xfff7e528      0x4  uc_uart.o [1]
  .noinit                 uninit   0xfff7e52c      0x4  uc_uart.o [1]
  .noinit                 uninit   0xfff7e530      0x4  uc_uart.o [1]
  .noinit                 uninit   0xfff7e534      0x4  uc_uart.o [1]
  .noinit                 uninit   0xfff7e538      0x4  uc_uart.o [1]
  .noinit                 uninit   0xfff7e53c      0x4  uc_uart.o [1]
  .noinit                 uninit   0xfff7e540      0x4  uc_uart.o [1]
  .noinit                 uninit   0xfff7e544      0x4  uc_uart.o [1]
  .noinit                 uninit   0xfff7e548      0x4  uc_uart.o [1]
  .noinit                 uninit   0xfff7e54c      0x4  uc_uart.o [1]
  .noinit                 uninit   0xfff7e550      0x4  uc_uart.o [1]
  .noinit                 uninit   0xfff7e554      0x4  uc_uart.o [1]
  .noinit                 uninit   0xfff7e558      0x4  uc_uart.o [1]
  .noinit                 uninit   0xfff7e55c      0x4  uc_uart.o [1]
                                 - 0xfff7e560     0x54

Absolute sections, part 54 of 90:                  0x4
  .noinit                 uninit   0xfff7e590      0x4  uc_uart.o [1]
                                 - 0xfff7e594      0x4

Absolute sections, part 55 of 90:                 0x68
  .noinit                 uninit   0xfff7f400      0x4  uc_spi.o [1]
  .noinit                 uninit   0xfff7f404      0x4  uc_spi.o [1]
  .noinit                 uninit   0xfff7f408      0x4  uc_spi.o [1]
  .noinit                 uninit   0xfff7f40c      0x4  uc_spi.o [1]
  .noinit                 uninit   0xfff7f410      0x4  uc_spi.o [1]
  .noinit                 uninit   0xfff7f414      0x4  uc_spi.o [1]
  .noinit                 uninit   0xfff7f418      0x4  uc_spi.o [1]
  .noinit                 uninit   0xfff7f41c      0x4  uc_spi.o [1]
  .noinit                 uninit   0xfff7f420      0x4  uc_spi.o [1]
  .noinit                 uninit   0xfff7f424      0x4  uc_spi.o [1]
  .noinit                 uninit   0xfff7f428      0x4  uc_spi.o [1]
  .noinit                 uninit   0xfff7f42c      0x4  uc_spi.o [1]
  .noinit                 uninit   0xfff7f430      0x4  uc_spi.o [1]
  .noinit                 uninit   0xfff7f434      0x4  uc_spi.o [1]
  .noinit                 uninit   0xfff7f438      0x4  uc_spi.o [1]
  .noinit                 uninit   0xfff7f43c      0x4  uc_spi.o [1]
  .noinit                 uninit   0xfff7f440      0x4  uc_spi.o [1]
  .noinit                 uninit   0xfff7f444      0x4  uc_spi.o [1]
  .noinit                 uninit   0xfff7f448      0x4  uc_spi.o [1]
  .noinit                 uninit   0xfff7f44c      0x4  uc_spi.o [1]
  .noinit                 uninit   0xfff7f450      0x4  uc_spi.o [1]
  .noinit                 uninit   0xfff7f454      0x4  uc_spi.o [1]
  .noinit                 uninit   0xfff7f458      0x4  uc_spi.o [1]
  .noinit                 uninit   0xfff7f45c      0x4  uc_spi.o [1]
  .noinit                 uninit   0xfff7f460      0x4  uc_spi.o [1]
  .noinit                 uninit   0xfff7f464      0x4  uc_spi.o [1]
                                 - 0xfff7f468     0x68

Absolute sections, part 56 of 90:                 0x18
  .noinit                 uninit   0xfff7f470      0x4  uc_spi.o [1]
  .noinit                 uninit   0xfff7f474      0x4  uc_spi.o [1]
  .noinit                 uninit   0xfff7f478      0x4  uc_spi.o [1]
  .noinit                 uninit   0xfff7f47c      0x4  uc_spi.o [1]
  .noinit                 uninit   0xfff7f480      0x4  uc_spi.o [1]
  .noinit                 uninit   0xfff7f484      0x4  uc_spi.o [1]
                                 - 0xfff7f488     0x18

Absolute sections, part 57 of 90:                 0x8c
  .noinit                 uninit   0xfff7f490      0x4  uc_spi.o [1]
  .noinit                 uninit   0xfff7f494      0x4  uc_spi.o [1]
  .noinit                 uninit   0xfff7f498      0x4  uc_spi.o [1]
  .noinit                 uninit   0xfff7f49c      0x4  uc_spi.o [1]
  .noinit                 uninit   0xfff7f4a0      0x4  uc_spi.o [1]
  .noinit                 uninit   0xfff7f4a4      0x4  uc_spi.o [1]
  .noinit                 uninit   0xfff7f4a8      0x4  uc_spi.o [1]
  .noinit                 uninit   0xfff7f4ac      0x4  uc_spi.o [1]
  .noinit                 uninit   0xfff7f4b0      0x4  uc_spi.o [1]
  .noinit                 uninit   0xfff7f4b4      0x4  uc_spi.o [1]
  .noinit                 uninit   0xfff7f4b8      0x4  uc_spi.o [1]
  .noinit                 uninit   0xfff7f4bc      0x4  uc_spi.o [1]
  .noinit                 uninit   0xfff7f4c0      0x4  uc_spi.o [1]
  .noinit                 uninit   0xfff7f4c4      0x4  uc_spi.o [1]
  .noinit                 uninit   0xfff7f4c8      0x4  uc_spi.o [1]
  .noinit                 uninit   0xfff7f4cc      0x4  uc_spi.o [1]
  .noinit                 uninit   0xfff7f4d0      0x4  uc_spi.o [1]
  .noinit                 uninit   0xfff7f4d4      0x4  uc_spi.o [1]
  .noinit                 uninit   0xfff7f4d8      0x4  uc_spi.o [1]
  .noinit                 uninit   0xfff7f4dc      0x4  uc_spi.o [1]
  .noinit                 uninit   0xfff7f4e0      0x4  uc_spi.o [1]
  .noinit                 uninit   0xfff7f4e4      0x4  uc_spi.o [1]
  .noinit                 uninit   0xfff7f4e8      0x4  uc_spi.o [1]
  .noinit                 uninit   0xfff7f4ec      0x4  uc_spi.o [1]
  .noinit                 uninit   0xfff7f4f0      0x4  uc_spi.o [1]
  .noinit                 uninit   0xfff7f4f4      0x4  uc_spi.o [1]
  .noinit                 uninit   0xfff7f4f8      0x4  uc_spi.o [1]
  .noinit                 uninit   0xfff7f4fc      0x4  uc_spi.o [1]
  .noinit                 uninit   0xfff7f500      0x4  uc_spi.o [1]
  .noinit                 uninit   0xfff7f504      0x4  uc_spi.o [1]
  .noinit                 uninit   0xfff7f508      0x4  uc_spi.o [1]
  .noinit                 uninit   0xfff7f50c      0x4  uc_spi.o [1]
  .noinit                 uninit   0xfff7f510      0x4  uc_spi.o [1]
  .noinit                 uninit   0xfff7f514      0x4  uc_spi.o [1]
  .noinit                 uninit   0xfff7f518      0x4  uc_spi.o [1]
                                 - 0xfff7f51c     0x8c

Absolute sections, part 58 of 90:                 0x20
  .noinit                 uninit   0xfff7f520      0x4  uc_spi.o [1]
  .noinit                 uninit   0xfff7f524      0x4  uc_spi.o [1]
  .noinit                 uninit   0xfff7f528      0x4  uc_spi.o [1]
  .noinit                 uninit   0xfff7f52c      0x4  uc_spi.o [1]
  .noinit                 uninit   0xfff7f530      0x4  uc_spi.o [1]
  .noinit                 uninit   0xfff7f534      0x4  uc_spi.o [1]
  .noinit                 uninit   0xfff7f538      0x4  uc_spi.o [1]
  .noinit                 uninit   0xfff7f53c      0x4  uc_spi.o [1]
                                 - 0xfff7f540     0x20

Absolute sections, part 59 of 90:                 0x68
  .noinit                 uninit   0xfff7f800      0x4  uc_spi.o [1]
  .noinit                 uninit   0xfff7f804      0x4  uc_spi.o [1]
  .noinit                 uninit   0xfff7f808      0x4  uc_spi.o [1]
  .noinit                 uninit   0xfff7f80c      0x4  uc_spi.o [1]
  .noinit                 uninit   0xfff7f810      0x4  uc_spi.o [1]
  .noinit                 uninit   0xfff7f814      0x4  uc_spi.o [1]
  .noinit                 uninit   0xfff7f818      0x4  uc_spi.o [1]
  .noinit                 uninit   0xfff7f81c      0x4  uc_spi.o [1]
  .noinit                 uninit   0xfff7f820      0x4  uc_spi.o [1]
  .noinit                 uninit   0xfff7f824      0x4  uc_spi.o [1]
  .noinit                 uninit   0xfff7f828      0x4  uc_spi.o [1]
  .noinit                 uninit   0xfff7f82c      0x4  uc_spi.o [1]
  .noinit                 uninit   0xfff7f830      0x4  uc_spi.o [1]
  .noinit                 uninit   0xfff7f834      0x4  uc_spi.o [1]
  .noinit                 uninit   0xfff7f838      0x4  uc_spi.o [1]
  .noinit                 uninit   0xfff7f83c      0x4  uc_spi.o [1]
  .noinit                 uninit   0xfff7f840      0x4  uc_spi.o [1]
  .noinit                 uninit   0xfff7f844      0x4  uc_spi.o [1]
  .noinit                 uninit   0xfff7f848      0x4  uc_spi.o [1]
  .noinit                 uninit   0xfff7f84c      0x4  uc_spi.o [1]
  .noinit                 uninit   0xfff7f850      0x4  uc_spi.o [1]
  .noinit                 uninit   0xfff7f854      0x4  uc_spi.o [1]
  .noinit                 uninit   0xfff7f858      0x4  uc_spi.o [1]
  .noinit                 uninit   0xfff7f85c      0x4  uc_spi.o [1]
  .noinit                 uninit   0xfff7f860      0x4  uc_spi.o [1]
  .noinit                 uninit   0xfff7f864      0x4  uc_spi.o [1]
                                 - 0xfff7f868     0x68

Absolute sections, part 60 of 90:                 0x18
  .noinit                 uninit   0xfff7f870      0x4  uc_spi.o [1]
  .noinit                 uninit   0xfff7f874      0x4  uc_spi.o [1]
  .noinit                 uninit   0xfff7f878      0x4  uc_spi.o [1]
  .noinit                 uninit   0xfff7f87c      0x4  uc_spi.o [1]
  .noinit                 uninit   0xfff7f880      0x4  uc_spi.o [1]
  .noinit                 uninit   0xfff7f884      0x4  uc_spi.o [1]
                                 - 0xfff7f888     0x18

Absolute sections, part 61 of 90:                 0x8c
  .noinit                 uninit   0xfff7f890      0x4  uc_spi.o [1]
  .noinit                 uninit   0xfff7f894      0x4  uc_spi.o [1]
  .noinit                 uninit   0xfff7f898      0x4  uc_spi.o [1]
  .noinit                 uninit   0xfff7f89c      0x4  uc_spi.o [1]
  .noinit                 uninit   0xfff7f8a0      0x4  uc_spi.o [1]
  .noinit                 uninit   0xfff7f8a4      0x4  uc_spi.o [1]
  .noinit                 uninit   0xfff7f8a8      0x4  uc_spi.o [1]
  .noinit                 uninit   0xfff7f8ac      0x4  uc_spi.o [1]
  .noinit                 uninit   0xfff7f8b0      0x4  uc_spi.o [1]
  .noinit                 uninit   0xfff7f8b4      0x4  uc_spi.o [1]
  .noinit                 uninit   0xfff7f8b8      0x4  uc_spi.o [1]
  .noinit                 uninit   0xfff7f8bc      0x4  uc_spi.o [1]
  .noinit                 uninit   0xfff7f8c0      0x4  uc_spi.o [1]
  .noinit                 uninit   0xfff7f8c4      0x4  uc_spi.o [1]
  .noinit                 uninit   0xfff7f8c8      0x4  uc_spi.o [1]
  .noinit                 uninit   0xfff7f8cc      0x4  uc_spi.o [1]
  .noinit                 uninit   0xfff7f8d0      0x4  uc_spi.o [1]
  .noinit                 uninit   0xfff7f8d4      0x4  uc_spi.o [1]
  .noinit                 uninit   0xfff7f8d8      0x4  uc_spi.o [1]
  .noinit                 uninit   0xfff7f8dc      0x4  uc_spi.o [1]
  .noinit                 uninit   0xfff7f8e0      0x4  uc_spi.o [1]
  .noinit                 uninit   0xfff7f8e4      0x4  uc_spi.o [1]
  .noinit                 uninit   0xfff7f8e8      0x4  uc_spi.o [1]
  .noinit                 uninit   0xfff7f8ec      0x4  uc_spi.o [1]
  .noinit                 uninit   0xfff7f8f0      0x4  uc_spi.o [1]
  .noinit                 uninit   0xfff7f8f4      0x4  uc_spi.o [1]
  .noinit                 uninit   0xfff7f8f8      0x4  uc_spi.o [1]
  .noinit                 uninit   0xfff7f8fc      0x4  uc_spi.o [1]
  .noinit                 uninit   0xfff7f900      0x4  uc_spi.o [1]
  .noinit                 uninit   0xfff7f904      0x4  uc_spi.o [1]
  .noinit                 uninit   0xfff7f908      0x4  uc_spi.o [1]
  .noinit                 uninit   0xfff7f90c      0x4  uc_spi.o [1]
  .noinit                 uninit   0xfff7f910      0x4  uc_spi.o [1]
  .noinit                 uninit   0xfff7f914      0x4  uc_spi.o [1]
  .noinit                 uninit   0xfff7f918      0x4  uc_spi.o [1]
                                 - 0xfff7f91c     0x8c

Absolute sections, part 62 of 90:                 0x20
  .noinit                 uninit   0xfff7f920      0x4  uc_spi.o [1]
  .noinit                 uninit   0xfff7f924      0x4  uc_spi.o [1]
  .noinit                 uninit   0xfff7f928      0x4  uc_spi.o [1]
  .noinit                 uninit   0xfff7f92c      0x4  uc_spi.o [1]
  .noinit                 uninit   0xfff7f930      0x4  uc_spi.o [1]
  .noinit                 uninit   0xfff7f934      0x4  uc_spi.o [1]
  .noinit                 uninit   0xfff7f938      0x4  uc_spi.o [1]
  .noinit                 uninit   0xfff7f93c      0x4  uc_spi.o [1]
                                 - 0xfff7f940     0x20

Absolute sections, part 63 of 90:                  0x4
  .noinit                 uninit   0xfff7fc00      0x4  uc_dio.o [1]
                                 - 0xfff7fc04      0x4

Absolute sections, part 64 of 90:                 0x20
  .noinit                 uninit   0xfff7fc18      0x4  uc_dio.o [1]
  .noinit                 uninit   0xfff7fc1c      0x4  uc_dio.o [1]
  .noinit                 uninit   0xfff7fc20      0x4  uc_dio.o [1]
  .noinit                 uninit   0xfff7fc24      0x4  uc_dio.o [1]
  .noinit                 uninit   0xfff7fc28      0x4  uc_dio.o [1]
  .noinit                 uninit   0xfff7fc2c      0x4  uc_dio.o [1]
  .noinit                 uninit   0xfff7fc30      0x4  uc_dio.o [1]
  .noinit                 uninit   0xfff7fc34      0x4  uc_dio.o [1]
                                 - 0xfff7fc38     0x20

Absolute sections, part 65 of 90:                  0x4
  .noinit                 uninit   0xfff82000      0x4  uc_system.o [1]
                                 - 0xfff82004      0x4

Absolute sections, part 66 of 90:                  0x4
  .noinit                 uninit   0xfff87000      0x4  low_level_init.o [1]
                                 - 0xfff87004      0x4

Absolute sections, part 67 of 90:                  0x4
  .noinit                 uninit   0xfff87040      0x4  uc_eeprom.o [1]
                                 - 0xfff87044      0x4

Absolute sections, part 68 of 90:                  0x4
  .noinit                 uninit   0xfff87288      0x4  uc_eeprom.o [1]
                                 - 0xfff8728c      0x4

Absolute sections, part 69 of 90:                 0x10
  .noinit                 uninit   0xffffe0a0      0x4  low_level_init.o [1]
  .noinit                 uninit   0xffffe0a4      0x4  low_level_init.o [1]
  .noinit                 uninit   0xffffe0a8      0x4  low_level_init.o [1]
  .noinit                 uninit   0xffffe0ac      0x4  low_level_init.o [1]
                                 - 0xffffe0b0     0x10

Absolute sections, part 70 of 90:                  0x4
  .noinit                 uninit   0xffffe170      0x4  low_level_init.o [1]
                                 - 0xffffe174      0x4

Absolute sections, part 71 of 90:                  0x8
  .noinit                 uninit   0xffffea38      0x4  uc_system.o [1]
  .noinit                 uninit   0xffffea3c      0x4  uc_system.o [1]
                                 - 0xffffea40      0x8

Absolute sections, part 72 of 90:                  0x8
  .noinit                 uninit   0xffffeb2c      0x4  uc_uart _cfg.o [1]
  .noinit                 uninit   0xffffeb30      0x4  uc_uart _cfg.o [1]
                                 - 0xffffeb34      0x8

Absolute sections, part 73 of 90:                  0x4
  .noinit                 uninit   0xffffeb70      0x4  uc_pwm.o [1]
                                 - 0xffffeb74      0x4

Absolute sections, part 74 of 90:                  0x4
  .noinit                 uninit   0xfffffc00      0x4  uc_timer.o [1]
                                 - 0xfffffc04      0x4

Absolute sections, part 75 of 90:                  0x4
  .noinit                 uninit   0xfffffc10      0x4  uc_timer.o [1]
                                 - 0xfffffc14      0x4

Absolute sections, part 76 of 90:                  0x4
  .noinit                 uninit   0xfffffc18      0x4  uc_timer.o [1]
                                 - 0xfffffc1c      0x4

Absolute sections, part 77 of 90:                  0x8
  .noinit                 uninit   0xfffffc50      0x4  uc_timer.o [1]
  .noinit                 uninit   0xfffffc54      0x4  uc_timer.o [1]
                                 - 0xfffffc58      0x8

Absolute sections, part 78 of 90:                  0x4
  .noinit                 uninit   0xfffffc80      0x4  uc_timer.o [1]
                                 - 0xfffffc84      0x4

Absolute sections, part 79 of 90:                  0x4
  .noinit                 uninit   0xfffffc88      0x4  uc_timer.o [1]
                                 - 0xfffffc8c      0x4

Absolute sections, part 80 of 90:                  0x8
  .noinit                 uninit   0xfffffe10      0x4  uc_system.o [1]
  .noinit                 uninit   0xfffffe14      0x4  uc_system.o [1]
                                 - 0xfffffe18      0x8

Absolute sections, part 81 of 90:                  0xc
  .noinit                 uninit   0xfffffe30      0x4  uc_system.o [1]
  .noinit                 uninit   0xfffffe34      0x4  uc_system.o [1]
  .noinit                 uninit   0xfffffe38      0x4  uc_system.o [1]
                                 - 0xfffffe3c      0xc

Absolute sections, part 82 of 90:                  0x8
  .noinit                 uninit   0xfffffe40      0x4  uc_system.o [1]
  .noinit                 uninit   0xfffffe44      0x4  uc_system.o [1]
                                 - 0xfffffe48      0x8

Absolute sections, part 83 of 90:                  0x8
  .noinit                 uninit   0xfffffe60      0x4  uc_system.o [1]
  .noinit                 uninit   0xfffffe64      0x4  uc_system.o [1]
                                 - 0xfffffe68      0x8

Absolute sections, part 84 of 90:                  0x4
  .noinit                 uninit   0xffffff30      0x4  low_level_init.o [1]
                                 - 0xffffff34      0x4

Absolute sections, part 85 of 90:                 0x10
  .noinit                 uninit   0xffffff48      0x4  low_level_init.o [1]
  .noinit                 uninit   0xffffff4c      0x4  low_level_init.o [1]
  .noinit                 uninit   0xffffff50      0x4  uc_timer.o [1]
  .noinit                 uninit   0xffffff54      0x4  low_level_init.o [1]
                                 - 0xffffff58     0x10

Absolute sections, part 86 of 90:                  0x4
  .noinit                 uninit   0xffffff5c      0x4  uc_system.o [1]
                                 - 0xffffff60      0x4

Absolute sections, part 87 of 90:                  0x8
  .noinit                 uninit   0xffffff70      0x4  low_level_init.o [1]
  .noinit                 uninit   0xffffff74      0x4  low_level_init.o [1]
                                 - 0xffffff78      0x8

Absolute sections, part 88 of 90:                  0x4
  .noinit                 uninit   0xffffff88      0x4  low_level_init.o [1]
                                 - 0xffffff8c      0x4

Absolute sections, part 89 of 90:                  0x4
  .noinit                 uninit   0xffffffd0      0x4  low_level_init.o [1]
                                 - 0xffffffd4      0x4

Absolute sections, part 90 of 90:                  0x4
  .noinit                 uninit   0xffffffe0      0x4  uc_system.o [1]
                                 - 0xffffffe4      0x4


*******************************************************************************
*** INIT TABLE
***

          Address     Size
          -------     ----
Zero (__iar_zero_init3)
    1 destination range, total size 0x516:
          0x0800b678   0x516

Copy/lz77 (__iar_lz77_init_single3)
    1 source range, total size 0x1b5c (25% of destination):
          0x0011936c  0x1b5c
    1 destination range, total size 0x6c78:
          0x08000000  0x6c78



*******************************************************************************
*** MODULE SUMMARY
***

    Module                                       ro code  rw code  ro data  rw data  rw data
                                                                                      (abs)
    ------                                       -------  -------  -------  -------  -------
D:\VCU_Projects\deVCU_Rev2\JayemCodeReleaseRev2.2\JayemCodeRelease\01_Software\Flash_Debug\Obj: [1]
    Fapi_UserDefinedFunctions.o                        4
    app.o                                             10
    app_FaultMgr.o                                 1 140                 1        5
    app_FaultMgr_cfg.o                                                  42      168
    app_Main100msMgr.o                                62                 4       48
    app_Main100msMgr_capi.o                           84               383      112
    app_Main100msMgr_data.o                                                       8
    app_Main10msMgr.o                             10 866                 4      636
    app_Main10msMgr_capi.o                            84            17 665    1 160
    app_Main10msMgr_data.o                                             377    1 496
    app_Main1msMgr.o                                 494                 4       48
    app_Main1msMgr_capi.o                             84             1 754      188
    app_Main1msMgr_data.o                                                       160
    app_Main50msMgr.o                                 62                 4       48
    app_Main50msMgr_capi.o                            84               380      112
    app_Main50msMgr_data.o                                                        8
    app_diag.o                                     7 596                68       34
    app_diag_gf.o                                  1 734                 1       62
    ecu.o                                             60
    ecu_anlg.o                                       760                          1
    ecu_anlg_cfg.o                                                     164      644
    ecu_com.o                                      8 040                          2
    ecu_com_cfg.o                                                       27      108
    ecu_com_cfg_gen.o                                                1 229    4 872
    ecu_diag.o                                     1 112                         27
    ecu_io.o                                       4 064                25       65
    ecu_io_cfg.o                                                       213      844
    ecu_mem.o                                      1 080                          1
    ecu_mem_cfg.o                                                      129      512
    ecu_serial.o                                   2 836
    ecu_serial_cfg.o                                                 1 603    6 352
    ecu_system.o                                     212                          2
    ecu_txcp.o                                       484                          3
    ecu_wdg.o                                         92                          2
    lib_data.o                                        62
    lib_delay.o                                       20
    low_level_init.o                                 448                                  56
    main.o                                           796                 5       21
    os.o                                             584                         14
    os_cfg.o                                                            24       96
    os_tasks.o                                       164
    rtGetInf.o                                       172
    rtGetNaN.o                                       100                 4
    rt_nonfinite.o                                   152                         36
    rte.o                                          6 932               730    2 896
    rte_tasks.o                                       36
    tms570ls3137_cstartup.o                          520
    uc.o                                              48
    uc_adc.o                                       1 732               378    1 544      720
    uc_adc_cfg.o                                                        29      116
    uc_can.o                                      10 116               339    1 344      684
    uc_can_cfg.o                                                       279    1 108
    uc_dio.o                                       1 312               130      576      212
    uc_dio_cfg.o                                                       175      696
    uc_eeprom.o                                      600                                   8
    uc_pwm.o                                       3 356                89      361       28
    uc_pwm_cfg.o                                                        77      304
    uc_spi.o                                       7 096               306    1 216      616
    uc_spi_cfg.o                                                        76      300
    uc_system.o                                      352        6        6        8       56
    uc_timer.o                                       612                          4       32
    uc_timer_cfg.o                                                      40      160
    uc_uart _cfg.o                                                      35      136        8
    uc_uart.o                                      3 220                96      385      192
    ----------------------------------------------------------------------------------------
    Total:                                        79 474        6   26 895   29 049    2 612

command line: [2]
    ----------------------------------------------------------------------------------------
    Total:

F021_API_CortexR4_BE.lib: [3]
    Async.WithAddress.obj                             48
    Async.obj                                         42
    FlashStateMachine.EnableEepromSectors.obj        196
    FlashStateMachine.Hercules.IsEccAddress.obj       80
    FlashStateMachine.InitializeFlashBanks.obj       636
    FlashStateMachine.IssueFsmCommand.obj             60
    FlashStateMachine.ScaleFclk.obj                   32                 2        8
    FlashStateMachine.SetActiveBank.obj              380                 1        1
    Program.obj                                      376
    Read.Common.obj                                  148
    Read.FlushPipeline.obj                            34
    Read.Margin.obj                                  110
    Read.WdService.obj                                12
    Utilities.CalculateEcc.obj                        20
    Utilities.CalculateFletcher.obj                   54
    Utilities.GetNumberOfSectors.obj                  16
    Utilities.WaitDelay.obj                           48
    ----------------------------------------------------------------------------------------
    Total:                                         2 292                 3        9

dl7Sx_tbn.a: [4]
    errno.o                                           12                 1        4
    exit.o                                             4
    xtls.o                                             2
    ----------------------------------------------------------------------------------------
    Total:                                            18                 1        4

m7Sx_tbv.a: [5]
    floor.o                                          104
    fmod.o                                           452
    fpinit.o                                          40
    round.o                                           74
    xdint.o                                          122
    ----------------------------------------------------------------------------------------
    Total:                                           792

rt7Sx_tb.a: [6]
    ABImemclr4.o                                       8
    ABImemcpy.o                                      212
    ABImemset.o                                      116
    ABImemset48.o                                     56
    cexit.o                                           16
    cmain.o                                           44
    data_init.o                                       48
    iarEdom.o                                         20
    lz77_init_single.o                               120
    zero_init3.o                                      64
    ----------------------------------------------------------------------------------------
    Total:                                           704

sh7Sxs_b.a: [7]
    exit.o                                            20
    xreturnswi.o                                       4
    ----------------------------------------------------------------------------------------
    Total:                                            24

    Gaps                                              25                          2
    Linker created                                    16                32   18 944
--------------------------------------------------------------------------------------------
    Grand Total:                                  83 345        6   26 931   48 008    2 612


*******************************************************************************
*** ENTRY LIST
***

Entry                      Address    Size  Type      Object
-----                      -------    ----  ----      ------
.iar.init_table$$Base   0x00118de4           --   Gb  - Linker created -
.iar.init_table$$Limit  0x00118e04           --   Gb  - Linker created -
?main                   0x00117cc8          Code  Gb  cmain.o [6]
ABT_STACK$$Base         0x0800b478           --   Gb  - Linker created -
ABT_STACK$$Limit        0x0800b678           --   Gb  - Linker created -
AD1BUFER_BASE           0xff3e0000     0x4  Data  Gb  uc_adc.o [1]
AD2BUFER_BASE           0xff3a0000     0x4  Data  Gb  uc_adc.o [1]
APP_DIAG_au8DataNotUsed
                        0x0800bac8     0x8  Data  Gb  app_diag_gf.o [1]
APP_DIAG_au8ReadDTC     0x0800baa8     0x8  Data  Gb  app_diag.o [1]
APP_DIAG_au8ReceivedFullArray
                        0x0800bac0     0x8  Data  Gb  app_diag_gf.o [1]
APP_DIAG_au8RequestData
                        0x0800bab0     0x8  Data  Gb  app_diag_gf.o [1]
APP_DIAG_au8ResposneData
                        0x0800bab8     0x8  Data  Gb  app_diag_gf.o [1]
APP_DIAG_eCurrentSession
                        0x0800bb6c     0x1  Data  Gb  app_diag_gf.o [1]
APP_DIAG_eFrameType     0x0800bb66     0x1  Data  Gb  app_diag_gf.o [1]
APP_DIAG_u16ReadDTC_BytesSentSoFar
                        0x0800bb5a     0x2  Data  Gb  app_diag.o [1]
APP_DIAG_u16ReadDTC_ConFramesRealBytes
                        0x0800bb5c     0x2  Data  Gb  app_diag.o [1]
APP_DIAG_u16ReadDTC_TotalBytes
                        0x0800bb58     0x2  Data  Gb  app_diag.o [1]
APP_DIAG_u16ReadDataByIdentifier_OffDen
                        0x0800bb56     0x2  Data  Gb  app_diag.o [1]
APP_DIAG_u16ReadDataByIdentifier_OffNum
                        0x0800bb54     0x2  Data  Gb  app_diag.o [1]
APP_DIAG_u16ReadDataByIdentifier_ResDen
                        0x0800bb52     0x2  Data  Gb  app_diag.o [1]
APP_DIAG_u16ReadDataByIdentifier_ResNum
                        0x0800bb50     0x2  Data  Gb  app_diag.o [1]
APP_DIAG_u32TesterPresentTimer
                        0x0800bb00     0x4  Data  Gb  app_diag_gf.o [1]
APP_DIAG_u32WriteDataByAddress_Address
                        0x0800ba74     0x4  Data  Gb  app_diag.o [1]
APP_DIAG_u8ConsecutiveFrameSequenceNumber
                        0x0800bb71     0x1  Data  Gb  app_diag_gf.o [1]
APP_DIAG_u8ConsecutiveFrameServiceID
                        0x0800bb70     0x1  Data  Gb  app_diag_gf.o [1]
APP_DIAG_u8DataCount    0x0800bb67     0x1  Data  Gb  app_diag_gf.o [1]
APP_DIAG_u8DefaultEcuModeCheck
                        0x00112251    0x2a  Code  Gb  app_diag_gf.o [1]
APP_DIAG_u8FirstFrameServiceID
                        0x0800bb6f     0x1  Data  Gb  app_diag_gf.o [1]
APP_DIAG_u8FlowControlExpected
                        0x0800bb6d     0x1  Data  Gb  app_diag_gf.o [1]
APP_DIAG_u8FlowControlServiceID
                        0x0800bb6e     0x1  Data  Gb  app_diag_gf.o [1]
APP_DIAG_u8NumberOfBytesReceived
                        0x0800bb6b     0x1  Data  Gb  app_diag_gf.o [1]
APP_DIAG_u8ReadDTC_ConFramesNumber
                        0x0800bb63     0x1  Data  Gb  app_diag.o [1]
APP_DIAG_u8ReadDataByAddress_BytesNum
                        0x0800bb5e     0x1  Data  Gb  app_diag.o [1]
APP_DIAG_u8ReadDataByAddress_FirstFlowControl
                        0x0800bb5f     0x1  Data  Gb  app_diag.o [1]
APP_DIAG_u8ReadDataByAddress_GlobalCounter
                        0x0800bb61     0x1  Data  Gb  app_diag.o [1]
APP_DIAG_u8ReadDataByAddress_RemainingBytes
                        0x0800bb60     0x1  Data  Gb  app_diag.o [1]
APP_DIAG_u8RoutineControl_DelayTime
                        0x0800bb65     0x1  Data  Gb  app_diag.o [1]
APP_DIAG_u8RoutineControl_WriteStartAddress
                        0x0800bb64     0x1  Data  Gb  app_diag.o [1]
APP_DIAG_u8ServiceId    0x0800bb68     0x1  Data  Gb  app_diag_gf.o [1]
APP_DIAG_u8ServiceInAction
                        0x0800bb73     0x1  Data  Gb  app_diag_gf.o [1]
APP_DIAG_u8SubFunction  0x0800bb69     0x1  Data  Gb  app_diag_gf.o [1]
APP_DIAG_u8SuppressPosResponse
                        0x0800bb6a     0x1  Data  Gb  app_diag_gf.o [1]
APP_DIAG_u8TesterPresentReceived
                        0x0800bb72     0x1  Data  Gb  app_diag_gf.o [1]
APP_DIAG_u8WriteDataByAddress_ConsecutiveFrameFinished
                        0x0800bb62     0x1  Data  Gb  app_diag.o [1]
APP_DIAG_vdInit         0x0010fba9     0xc  Code  Gb  app_diag.o [1]
APP_DIAG_vdMgr          0x0010fbb5    0x86  Code  Gb  app_diag.o [1]
APP_FLT_eDtcSeverity    0x0800bb74     0x1  Data  Gb  app_FaultMgr.o [1]
APP_vdDeInit            0x00115671     0x2  Code  Gb  app.o [1]
APP_vdInit              0x00115669     0x8  Code  Gb  app.o [1]
APP_vdTask100ms         0x00115c89     0x8  Code  Gb  rte_tasks.o [1]
APP_vdTask10ms          0x00115c79     0x8  Code  Gb  rte_tasks.o [1]
APP_vdTask1ms           0x00115c6d     0xc  Code  Gb  rte_tasks.o [1]
APP_vdTask50ms          0x00115c81     0x8  Code  Gb  rte_tasks.o [1]
Abort_Handler           0x0010e6f3     0xc  Code  Gb  uc_system.o [1]
Array_enable            0x08006c76     0x1  Data  Gb  main.o [1]
Array_erase             0x080040f0     0x4  Data  Gb  main.o [1]
Array_page              0x080040e0     0x8  Data  Gb  main.o [1]
Array_read              0x080040e8     0x8  Data  Gb  main.o [1]
CSTACK$$Base            0x08006c78           --   Gb  - Linker created -
CSTACK$$Limit           0x0800ac78           --   Gb  - Linker created -
ConsecutiveFlowFrame    0x080005d8     0x4  Data  Gb  app_diag_gf.o [1]
DCAN1ABOTR              0xfff7dc80     0x4  Data  Gb  uc_can.o [1]
DCAN1RAM_BASE           0xff1e0000     0x4  Data  Gb  uc_can.o [1]
DCAN2ABOTR              0xfff7de80     0x4  Data  Gb  uc_can.o [1]
DCAN2RAM_BASE           0xff1c0000     0x4  Data  Gb  uc_can.o [1]
DCAN3ABOTR              0xfff7e080     0x4  Data  Gb  uc_can.o [1]
DCAN3RAM_BASE           0xff1a0000     0x4  Data  Gb  uc_can.o [1]
ECU_ANLG_astrSignal     0x08000c9c   0x284  Data  Gb  ecu_anlg_cfg.o [1]
ECU_ANLG_eAdjustPinValue
                        0x00102cfd    0xa8  Code  Gb  ecu_anlg.o [1]
ECU_ANLG_eFreezePinCurrentState
                        0x00102ccb    0x32  Code  Gb  ecu_anlg.o [1]
ECU_ANLG_eReadResolutionOffset
                        0x00102c0b    0x6a  Code  Gb  ecu_anlg.o [1]
ECU_ANLG_eReadSignal    0x00102b75    0x96  Code  Gb  ecu_anlg.o [1]
ECU_ANLG_eResetToDefault
                        0x00102c75    0x32  Code  Gb  ecu_anlg.o [1]
ECU_ANLG_eReturnControlToECU
                        0x00102ca7    0x24  Code  Gb  ecu_anlg.o [1]
ECU_ANLG_u8FreezeFlag   0x0800bb75     0x1  Data  Gb  ecu_anlg.o [1]
ECU_ANLG_vdInit         0x00102ab5     0x2  Code  Gb  ecu_anlg.o [1]
ECU_ANLG_vdMgr          0x00102ab7    0xbe  Code  Gb  ecu_anlg.o [1]
ECU_COM_astrHandler     0x08000f20    0x6c  Data  Gb  ecu_com_cfg.o [1]
ECU_COM_astrRx1Msg      0x08000f8c    0x14  Data  Gb  ecu_com_cfg_gen.o [1]
ECU_COM_astrRx1Signal   0x08001040   0x118  Data  Gb  ecu_com_cfg_gen.o [1]
ECU_COM_astrRx2Msg      0x08001950    0x14  Data  Gb  ecu_com_cfg_gen.o [1]
ECU_COM_astrRx2Signal   0x0800198c   0x1e0  Data  Gb  ecu_com_cfg_gen.o [1]
ECU_COM_astrRx3Msg      0x08001cac    0x14  Data  Gb  ecu_com_cfg_gen.o [1]
ECU_COM_astrRx3Signal   0x08001ce8    0xc8  Data  Gb  ecu_com_cfg_gen.o [1]
ECU_COM_astrSigDecodeTx
                        0x08002198    0xfc  Data  Gb  ecu_com_cfg_gen.o [1]
ECU_COM_astrTx1Msg      0x08000fa0    0xa0  Data  Gb  ecu_com_cfg_gen.o [1]
ECU_COM_astrTx1Signal   0x08001158   0x7f8  Data  Gb  ecu_com_cfg_gen.o [1]
ECU_COM_astrTx2Msg      0x08001964    0x28  Data  Gb  ecu_com_cfg_gen.o [1]
ECU_COM_astrTx2Signal   0x08001b6c   0x140  Data  Gb  ecu_com_cfg_gen.o [1]
ECU_COM_astrTx3Msg      0x08001cc0    0x28  Data  Gb  ecu_com_cfg_gen.o [1]
ECU_COM_astrTx3Signal   0x08001db0   0x3e8  Data  Gb  ecu_com_cfg_gen.o [1]
ECU_COM_u8GlobalEnable  0x0800bb76     0x1  Data  Gb  ecu_com.o [1]
ECU_COM_vdInit          0x001048c1   0x13c  Code  Gb  ecu_com.o [1]
ECU_COM_vdMgr           0x001049fd    0x44  Code  Gb  ecu_com.o [1]
ECU_COM_vdWriteSignal   0x00104a41    0xce  Code  Gb  ecu_com.o [1]
ECU_COM_vu8Test         0x0800bb77     0x1  Data  Gb  ecu_com.o [1]
ECU_DIAG_EcuCommunicationMode
                        0x0800bb78     0x1  Data  Gb  ecu_diag.o [1]
ECU_DIAG_pfCallback_vdAppDiag
                        0x0800bb14     0x4  Data  Gb  ecu_diag.o [1]
ECU_DIAG_pfCallback_vdTimingRequirement
                        0x0800bb18     0x4  Data  Gb  ecu_diag.o [1]
ECU_DIAG_strPacket      0x0800ba98    0x10  Data  Gb  ecu_diag.o [1]
ECU_DIAG_u8GetDiagFrame
                        0x00111ae1   0x1d6  Code  Gb  ecu_diag.o [1]
ECU_DIAG_u8SendOnCANNetwork
                        0x0800bb7a     0x1  Data  Gb  ecu_diag.o [1]
ECU_DIAG_u8TimerOverFlow
                        0x0800bb79     0x1  Data  Gb  ecu_diag.o [1]
ECU_DIAG_vdCAN1_Callback
                        0x001119b1    0x6c  Code  Gb  ecu_diag.o [1]
ECU_DIAG_vdCAN2_Callback
                        0x00111a1d    0x62  Code  Gb  ecu_diag.o [1]
ECU_DIAG_vdCAN3_Callback
                        0x00111a81    0x60  Code  Gb  ecu_diag.o [1]
ECU_DIAG_vdDeInit       0x00111cc5     0x2  Code  Gb  ecu_diag.o [1]
ECU_DIAG_vdEndService   0x00111cc7    0x5c  Code  Gb  ecu_diag.o [1]
ECU_DIAG_vdInit         0x00111955    0x5a  Code  Gb  ecu_diag.o [1]
ECU_DIAG_vdMgr          0x001119af     0x2  Code  Gb  ecu_diag.o [1]
ECU_DIAG_vdRegisterAppDiagCallback
                        0x00111cb7     0xe  Code  Gb  ecu_diag.o [1]
ECU_IO_astrObjInput     0x08002354   0x17c  Data  Gb  ecu_io_cfg.o [1]
ECU_IO_astrObjOutput    0x080024d0   0x140  Data  Gb  ecu_io_cfg.o [1]
ECU_IO_astrPwmObjInput  0x080022c4    0x30  Data  Gb  ecu_io_cfg.o [1]
ECU_IO_astrPwmObjOutput
                        0x080022f4    0x60  Data  Gb  ecu_io_cfg.o [1]
ECU_IO_eAdjustPinValue  0x00106d7d   0x168  Code  Gb  ecu_io.o [1]
ECU_IO_eFreezePinCurrentState
                        0x00106ca5    0xd8  Code  Gb  ecu_io.o [1]
ECU_IO_eInputRead       0x001069db   0x102  Code  Gb  ecu_io.o [1]
ECU_IO_eInternalOutputControl
                        0x0010699d    0x3e  Code  Gb  ecu_io.o [1]
ECU_IO_eOutputControl   0x00106857   0x146  Code  Gb  ecu_io.o [1]
ECU_IO_eReadPinValue    0x00106ee5    0x78  Code  Gb  ecu_io.o [1]
ECU_IO_eReadPwm         0x00107023   0x12c  Code  Gb  ecu_io.o [1]
ECU_IO_eResetPinToDefault
                        0x00106add    0xf0  Code  Gb  ecu_io.o [1]
ECU_IO_eReturnControlToECU
                        0x00106bcd    0xd8  Code  Gb  ecu_io.o [1]
ECU_IO_eSetPwm          0x00106fa3    0x80  Code  Gb  ecu_io.o [1]
ECU_IO_eStatus          0x0800bb7d     0x1  Data  Gb  ecu_io.o [1]
ECU_IO_strExpObj        0x08002294    0x30  Data  Gb  ecu_io.o [1]
ECU_IO_u8FreezeFlag     0x0800bb7b     0x1  Data  Gb  ecu_io.o [1]
ECU_IO_vdInit           0x00106829    0x1e  Code  Gb  ecu_io.o [1]
ECU_IO_vdMgr            0x00106847    0x10  Code  Gb  ecu_io.o [1]
ECU_MEM_INT_astrE2pData
                        0x08002610   0x1f8  Data  Gb  ecu_mem_cfg.o [1]
ECU_MEM_INT_eEraseSector
                        0x0010e321     0xe  Code  Gb  ecu_mem.o [1]
ECU_MEM_INT_eReadRawSignalValue
                        0x0010e2f3    0x2e  Code  Gb  ecu_mem.o [1]
ECU_MEM_INT_eReadSignalValueByAddress
                        0x0010e1dd    0x56  Code  Gb  ecu_mem.o [1]
ECU_MEM_INT_eWriteSignalValue
                        0x0010e0ff    0xde  Code  Gb  ecu_mem.o [1]
ECU_MEM_INT_eWriteSignalValueByAddress
                        0x0010e233    0x98  Code  Gb  ecu_mem.o [1]
ECU_MEM_INT_strE2pModuleHandler
                        0x08002808     0x8  Data  Gb  ecu_mem_cfg.o [1]
ECU_MEM_INT_u16ReadSignalResolution
                        0x0010e2cb    0x28  Code  Gb  ecu_mem.o [1]
ECU_MEM_INT_vdReadBootMemory
                        0x0010e32f     0x8  Code  Gb  ecu_mem.o [1]
ECU_MEM_vdDeInit        0x0010e0f5     0x8  Code  Gb  ecu_mem.o [1]
ECU_MEM_vdInit          0x0010e0ed     0x8  Code  Gb  ecu_mem.o [1]
ECU_MEM_vdMgr           0x0010e0fd     0x2  Code  Gb  ecu_mem.o [1]
ECU_PWM_u8FreezeFlag    0x0800bb7c     0x1  Data  Gb  ecu_io.o [1]
ECU_SERIAL_Internal_vdUart2RxCallback
                        0x00114b09    0x14  Code  Gb  ecu_serial.o [1]
ECU_SERIAL_astrInterface
                        0x080040d0    0x10  Data  Gb  ecu_serial_cfg.o [1]
ECU_SERIAL_astrRx1Frame
                        0x08002810  0x18c0  Data  Gb  ecu_serial_cfg.o [1]
ECU_SERIAL_vdInit       0x00114009    0x7c  Code  Gb  ecu_serial.o [1]
ECU_SERIAL_vdMgr        0x00114085     0x2  Code  Gb  ecu_serial.o [1]
ECU_SYS_eEcuMode        0x0800bb84     0x1  Data  Gb  ecu_system.o [1]
ECU_SYS_eGetEcuMode     0x0010df7d     0x6  Code  Gb  ecu_system.o [1]
ECU_SYS_u8IsShutdownAndReset
                        0x0010df91     0x6  Code  Gb  ecu_system.o [1]
ECU_SYS_u8ShutdownAndResetReq
                        0x0800bb85     0x1  Data  Gb  ecu_system.o [1]
ECU_SYS_vdDeInit        0x0010df01     0xc  Code  Gb  ecu_system.o [1]
ECU_SYS_vdExtWdgManage  0x0010dfa5    0x24  Code  Gb  ecu_system.o [1]
ECU_SYS_vdInit          0x0010def5     0xc  Code  Gb  ecu_system.o [1]
ECU_SYS_vdMgr           0x0010df0d     0xc  Code  Gb  ecu_system.o [1]
ECU_SYS_vdReInitialize  0x0010df21     0x8  Code  Gb  ecu_system.o [1]
ECU_SYS_vdReset         0x0010df6f     0x8  Code  Gb  ecu_system.o [1]
ECU_SYS_vdSetEcuMode    0x0010df77     0x6  Code  Gb  ecu_system.o [1]
ECU_SYS_vdShutdown      0x0010df19     0x8  Code  Gb  ecu_system.o [1]
ECU_SYS_vdShutdownAndReset
                        0x0010df83     0xe  Code  Gb  ecu_system.o [1]
ECU_SYS_vdSleep         0x0010df29    0x46  Code  Gb  ecu_system.o [1]
ECU_TXCP_eCalibEnable   0x0800bb87     0x1  Data  Gb  ecu_txcp.o [1]
ECU_TXCP_eGlobalEnable  0x0800bb88     0x1  Data  Gb  ecu_txcp.o [1]
ECU_TXCP_eHeartBeatEnable
                        0x0800bb86     0x1  Data  Gb  ecu_txcp.o [1]
ECU_TXCP_vdDeInit       0x00115699     0x8  Code  Gb  ecu_txcp.o [1]
ECU_TXCP_vdHandleRequests
                        0x00115709   0x140  Code  Gb  ecu_txcp.o [1]
ECU_TXCP_vdInit         0x00115675    0x24  Code  Gb  ecu_txcp.o [1]
ECU_TXCP_vdMgr          0x001156a1    0x68  Code  Gb  ecu_txcp.o [1]
ECU_WDG_eControlCmd     0x08006c75     0x1  Data  Gb  ecu_wdg.o [1]
ECU_WDG_eEnableCmd      0x0800bb89     0x1  Data  Gb  ecu_wdg.o [1]
ECU_WDG_vdDeInit        0x0010eafb     0xa  Code  Gb  ecu_wdg.o [1]
ECU_WDG_vdEnable        0x0010eb21    0x22  Code  Gb  ecu_wdg.o [1]
ECU_WDG_vdInit          0x0010eaf1     0xa  Code  Gb  ecu_wdg.o [1]
ECU_WDG_vdMgr           0x0010eb05    0x1c  Code  Gb  ecu_wdg.o [1]
ECU_vdDeInit            0x00115655    0x14  Code  Gb  ecu.o [1]
ECU_vdInit              0x0011562d    0x28  Code  Gb  ecu.o [1]
FIQ_Handler             0x0010e6ff     0xe  Code  Gb  uc_system.o [1]
FIQ_STACK$$Base         0x0800b078           --   Gb  - Linker created -
FIQ_STACK$$Limit        0x0800b278           --   Gb  - Linker created -
FLT_astrDtc             0x080005e0    0xa8  Data  Gb  app_FaultMgr_cfg.o [1]
Fapi_calculateEcc       0x0010fa4d          Code  Gb  Utilities.CalculateEcc.obj [3]
Fapi_calculateFletcherChecksum
                        0x0010f949          Code  Gb  Utilities.CalculateFletcher.obj [3]
Fapi_doMarginRead       0x0010f871          Code  Gb  Read.Margin.obj [3]
Fapi_enableEepromBankSectors
                        0x0010f64d          Code  Gb  FlashStateMachine.EnableEepromSectors.obj [3]
Fapi_flushPipeline      0x0010fb51          Code  Gb  Read.FlushPipeline.obj [3]
Fapi_getNumberOfBankSectors
                        0x0010f9bd          Code  Gb  Utilities.GetNumberOfSectors.obj [3]
Fapi_initializeFlashBanks
                        0x0010f271          Code  Gb  FlashStateMachine.InitializeFlashBanks.obj [3]
Fapi_isAddressEcc       0x0010fac9          Code  Gb  FlashStateMachine.Hercules.IsEccAddress.obj [3]
Fapi_issueAsyncCommand  0x0010f6cd          Code  Gb  Async.obj [3]
Fapi_issueAsyncCommandWithAddress
                        0x0010f8e1          Code  Gb  Async.WithAddress.obj [3]
Fapi_issueProgrammingCommand
                        0x0010f6f9          Code  Gb  Program.obj [3]
Fapi_serviceWatchdogTimer
                        0x0010fb73     0x4  Code  Gb  Fapi_UserDefinedFunctions.o [1]
Fapi_setActiveFlashBank
                        0x0010f4d1          Code  Gb  FlashStateMachine.SetActiveBank.obj [3]
Fapi_waitDelay          0x0010fb77          Code  Gb  Utilities.WaitDelay.obj [3]
FlowControlFrame        0x0800bad0     0x8  Data  Gb  app_diag_gf.o [1]
IOMM_KICK_REG0          0xffffea38     0x4  Data  Gb  uc_system.o [1]
IOMM_KICK_REG1          0xffffea3c     0x4  Data  Gb  uc_system.o [1]
IRQ_Handler             0x0010e70d     0xe  Code  Gb  uc_system.o [1]
IRQ_STACK$$Base         0x0800ae78           --   Gb  - Linker created -
IRQ_STACK$$Limit        0x0800b078           --   Gb  - Linker created -
IntTable                0x00119364     0x4  Data  Gb  uc_system.o [1]
LIB_DATA_fltRaw2Phy     0x00108259    0x1a  Code  Gb  lib_data.o [1]
LIB_DATA_u32Phy2Raw     0x00108273    0x24  Code  Gb  lib_data.o [1]
LIB_DELAY_vdNanoSeconds
                        0x0010eb4d    0x14  Code  Gb  lib_delay.o [1]
MIBSPI1_RXBUF_BASE      0xff0e0200     0x4  Data  Gb  uc_spi.o [1]
MIBSPI1_TXBUF_BASE      0xff0e0000     0x4  Data  Gb  uc_spi.o [1]
MIBSPI3_RXBUF_BASE      0xff0c0200     0x4  Data  Gb  uc_spi.o [1]
MIBSPI3_TXBUF_BASE      0xff0c0000     0x4  Data  Gb  uc_spi.o [1]
OS_astrTasks            0x080040f4    0x60  Data  Gb  os_cfg.o [1]
OS_u32SystemTick        0x0800bb24     0x4  Data  Gb  os.o [1]
OS_u32SystemTimerUs     0x0800bb28     0x4  Data  Gb  os.o [1]
OS_u32UpdateTasksCounter
                        0x0800bb2c     0x4  Data  Gb  os.o [1]
OS_u8ReInitializeSignal
                        0x0800bb8b     0x1  Data  Gb  os.o [1]
OS_u8ShutDownSignal     0x0800bb8a     0x1  Data  Gb  os.o [1]
OS_vdDeInit             0x0010e931     0x8  Code  Gb  os.o [1]
OS_vdInit               0x0010e8a9    0x62  Code  Gb  os.o [1]
OS_vdMain               0x0010e939    0xe4  Code  Gb  os.o [1]
OS_vdReinitialize       0x0010e923     0xe  Code  Gb  os.o [1]
OS_vdShutDown           0x0010e91b     0x8  Code  Gb  os.o [1]
OS_vdStart              0x0010e90b     0x8  Code  Gb  os.o [1]
OS_vdStop               0x0010e913     0x8  Code  Gb  os.o [1]
OS_vdTask100ms          0x00115c4d    0x20  Code  Gb  os_tasks.o [1]
OS_vdTask10ms           0x00115c05    0x2c  Code  Gb  os_tasks.o [1]
OS_vdTask1ms            0x00115bc9    0x3c  Code  Gb  os_tasks.o [1]
OS_vdTask50ms           0x00115c31    0x1c  Code  Gb  os_tasks.o [1]
Prefetch_Handler        0x0010e71b     0xe  Code  Gb  uc_system.o [1]
RTE_Read_A1             0x001039c5    0x26  Code  Gb  rte.o [1]
RTE_Read_APP_100MS_IN1  0x00102fb9    0x28  Code  Gb  rte.o [1]
RTE_Read_APP_10MS_IN1   0x00103115    0x28  Code  Gb  rte.o [1]
RTE_Read_APP_1MS_IN1    0x0010473d    0x24  Code  Gb  rte.o [1]
RTE_Read_APP_50MS_IN1   0x00104785    0x24  Code  Gb  rte.o [1]
RTE_Read_DTC_BMS_FAULT  0x00102e35    0x26  Code  Gb  rte.o [1]
RTE_Read_DTC_NONAME_10  0x00102f09    0x28  Code  Gb  rte.o [1]
RTE_Read_DTC_NONAME_5   0x00102dad    0x26  Code  Gb  rte.o [1]
RTE_Read_DTC_NONAME_6   0x00102df1    0x26  Code  Gb  rte.o [1]
RTE_Read_DTC_NONAME_8   0x00102e79    0x26  Code  Gb  rte.o [1]
RTE_Read_DTC_NONAME_9   0x00102ebd    0x28  Code  Gb  rte.o [1]
RTE_Read_DTC_Test1FL1   0x00104619    0x28  Code  Gb  rte.o [1]
RTE_Read_DTC_Test1FL2   0x001045ed    0x28  Code  Gb  rte.o [1]
RTE_Read_DTC_Test1War   0x00104645    0x28  Code  Gb  rte.o [1]
RTE_Read_DTC_Test2FL1   0x00104591    0x28  Code  Gb  rte.o [1]
RTE_Read_DTC_Test2FL2   0x00104565    0x28  Code  Gb  rte.o [1]
RTE_Read_DTC_Test2War   0x001045c1    0x28  Code  Gb  rte.o [1]
RTE_Read_DTC_Test3FL1   0x0010450d    0x28  Code  Gb  rte.o [1]
RTE_Read_DTC_Test3FL2   0x001044e1    0x28  Code  Gb  rte.o [1]
RTE_Read_DTC_Test3War   0x00104539    0x28  Code  Gb  rte.o [1]
RTE_Read_DTC_Test4FL1   0x0010448d    0x28  Code  Gb  rte.o [1]
RTE_Read_DTC_Test4FL2   0x00104461    0x28  Code  Gb  rte.o [1]
RTE_Read_DTC_Test4War   0x001044b9    0x28  Code  Gb  rte.o [1]
RTE_Read_DTC_Test5FL1   0x00104401    0x26  Code  Gb  rte.o [1]
RTE_Read_DTC_Test5FL2   0x001043d5    0x26  Code  Gb  rte.o [1]
RTE_Read_DTC_Test5War   0x0010442d    0x26  Code  Gb  rte.o [1]
RTE_Read_ECU_HSD2_OUT2_P6
                        0x00103415    0x28  Code  Gb  rte.o [1]
RTE_Read_ECU_HSD2_OUT3_P1
                        0x00103621    0x28  Code  Gb  rte.o [1]
RTE_Read_ECU_HSD2_OUT4_P2
                        0x001034dd    0x28  Code  Gb  rte.o [1]
RTE_Read_ECU_HSD3_OUT1_P8
                        0x00103509    0x28  Code  Gb  rte.o [1]
RTE_Read_ECU_HSD3_OUT2_P3
                        0x00103581    0x28  Code  Gb  rte.o [1]
RTE_Read_ECU_HSD3_OUT3_P4
                        0x0010343d    0x28  Code  Gb  rte.o [1]
RTE_Read_ECU_HSD3_OUT4_P9
                        0x001035a9    0x28  Code  Gb  rte.o [1]
RTE_Read_ECU_HSD4_OUT1_P5
                        0x001035d1    0x28  Code  Gb  rte.o [1]
RTE_Read_ECU_HSD4_OUT2_P10
                        0x001035f9    0x28  Code  Gb  rte.o [1]
RTE_Read_ECU_HSD4_OUT3_P15
                        0x00103559    0x28  Code  Gb  rte.o [1]
RTE_Read_ECU_HSD4_OUT4_P20
                        0x00103af5    0x28  Code  Gb  rte.o [1]
RTE_Read_Eraseee        0x00104075    0x28  Code  Gb  rte.o [1]
RTE_Read_FLT_SystemErrorSeverity
                        0x00102f51    0x28  Code  Gb  rte.o [1]
RTE_Read_HBridge2       0x00103021    0x28  Code  Gb  rte.o [1]
RTE_Read_HBridge2_Direction_Pin
                        0x00103049    0x28  Code  Gb  rte.o [1]
RTE_Read_HSD1_P122      0x001030ed    0x28  Code  Gb  rte.o [1]
RTE_Read_HSD2_P115      0x001030c5    0x28  Code  Gb  rte.o [1]
RTE_Read_HSD3_P123      0x0010309d    0x28  Code  Gb  rte.o [1]
RTE_Read_HSD4_P108      0x00103075    0x28  Code  Gb  rte.o [1]
RTE_Read_HSDResetPin    0x0010348d    0x28  Code  Gb  rte.o [1]
RTE_Read_H_Bridge1_Direction
                        0x001034b5    0x28  Code  Gb  rte.o [1]
RTE_Read_LSD1_OUT_10_P119
                        0x00103fd1    0x28  Code  Gb  rte.o [1]
RTE_Read_LSD1_OUT_11_P121
                        0x00103ec1    0x26  Code  Gb  rte.o [1]
RTE_Read_LSD1_OUT_12_P112
                        0x001040a1    0x28  Code  Gb  rte.o [1]
RTE_Read_LSD1_OUT_13_P114
                        0x001040d5    0x28  Code  Gb  rte.o [1]
RTE_Read_LSD1_OUT_14_P105
                        0x00103f45    0x26  Code  Gb  rte.o [1]
RTE_Read_LSD1_OUT_15_P107
                        0x00103eed    0x26  Code  Gb  rte.o [1]
RTE_Read_LSD1_OUT_16_P100
                        0x00103e65    0x26  Code  Gb  rte.o [1]
RTE_Read_LSD1_OUT_2_P89
                        0x00103ddd    0x26  Code  Gb  rte.o [1]
RTE_Read_LSD1_OUT_3_P88
                        0x00103d01    0x28  Code  Gb  rte.o [1]
RTE_Read_LSD1_OUT_4_P87
                        0x00103d85    0x28  Code  Gb  rte.o [1]
RTE_Read_LSD1_OUT_5_P96
                        0x00103d59    0x28  Code  Gb  rte.o [1]
RTE_Read_LSD1_OUT_6_P94
                        0x00103e35    0x26  Code  Gb  rte.o [1]
RTE_Read_LSD1_OUT_7_P103
                        0x00103d2d    0x28  Code  Gb  rte.o [1]
RTE_Read_LSD1_OUT_8_P101
                        0x00103f71    0x26  Code  Gb  rte.o [1]
RTE_Read_LSD1_OUT_9_P128
                        0x00103fa5    0x28  Code  Gb  rte.o [1]
RTE_Read_LSD_DATA       0x00104101    0x28  Code  Gb  rte.o [1]
RTE_Read_OdoReading3    0x001038d5    0x26  Code  Gb  rte.o [1]
RTE_Read_PWM_Out_H_Duty
                        0x00103c49    0x28  Code  Gb  rte.o [1]
RTE_Read_PWM_Out_H_Freq
                        0x00103f1d    0x26  Code  Gb  rte.o [1]
RTE_Read_PWM_Out_P11_Duty
                        0x00103c1d    0x28  Code  Gb  rte.o [1]
RTE_Read_PWM_Out_P11_Freq
                        0x00103e91    0x26  Code  Gb  rte.o [1]
RTE_Read_PWM_Out_P12_Duty
                        0x00103bf1    0x28  Code  Gb  rte.o [1]
RTE_Read_PWM_Out_P12_Freq
                        0x00103cd1    0x28  Code  Gb  rte.o [1]
RTE_Read_PWM_Out_P16_Freq
                        0x00103e09    0x26  Code  Gb  rte.o [1]
RTE_Read_PWM_Out_P17_Duty
                        0x00103c75    0x28  Code  Gb  rte.o [1]
RTE_Read_PWM_Out_P17_Freq
                        0x00103ffd    0x28  Code  Gb  rte.o [1]
RTE_Read_PWM_Out_P7_Duty
                        0x00103db1    0x28  Code  Gb  rte.o [1]
RTE_Read_PWM_Out_P7_Freq
                        0x00103ca1    0x28  Code  Gb  rte.o [1]
RTE_Read_RTE_EEPROM_Value_Write
                        0x00103b1d    0x28  Code  Gb  rte.o [1]
RTE_Read_ReadData       0x00103901    0x26  Code  Gb  rte.o [1]
RTE_Read_Reserve2       0x00103531    0x28  Code  Gb  rte.o [1]
RTE_Read_Resrve         0x00103465    0x28  Code  Gb  rte.o [1]
RTE_Read_Speed          0x00103b85    0x28  Code  Gb  rte.o [1]
RTE_Read_Test_1ms       0x001046f9    0x24  Code  Gb  rte.o [1]
RTE_Read_Test_1ms_Manual
                        0x001046ad    0x24  Code  Gb  rte.o [1]
RTE_Read_Updated_Data   0x00103a65    0x26  Code  Gb  rte.o [1]
RTE_Write_A1            0x001039eb    0x1e  Code  Gb  rte.o [1]
RTE_Write_A2            0x00103a09    0x1e  Code  Gb  rte.o [1]
RTE_Write_A3            0x00103a45    0x1e  Code  Gb  rte.o [1]
RTE_Write_ADC_5v_ID0_P69
                        0x0010315d    0x20  Code  Gb  rte.o [1]
RTE_Write_ADC_5v_ID10_P75
                        0x00103255    0x1c  Code  Gb  rte.o [1]
RTE_Write_ADC_5v_ID11_P74
                        0x00103375    0x20  Code  Gb  rte.o [1]
RTE_Write_ADC_5v_ID12_P73
                        0x001032a9    0x1c  Code  Gb  rte.o [1]
RTE_Write_ADC_5v_ID13_P72
                        0x001033b5    0x20  Code  Gb  rte.o [1]
RTE_Write_ADC_5v_ID14_P71
                        0x00103355    0x20  Code  Gb  rte.o [1]
RTE_Write_ADC_5v_ID15_P80
                        0x001032e1    0x1c  Code  Gb  rte.o [1]
RTE_Write_ADC_5v_ID16_P79
                        0x00103395    0x20  Code  Gb  rte.o [1]
RTE_Write_ADC_5v_ID17_P78
                        0x001032c5    0x1c  Code  Gb  rte.o [1]
RTE_Write_ADC_5v_ID18_P77
                        0x001032fd    0x1c  Code  Gb  rte.o [1]
RTE_Write_ADC_5v_ID19_P76
                        0x00103319    0x1c  Code  Gb  rte.o [1]
RTE_Write_ADC_5v_ID1_P59
                        0x00103271    0x1c  Code  Gb  rte.o [1]
RTE_Write_ADC_5v_ID20_P70
                        0x00103335    0x1c  Code  Gb  rte.o [1]
RTE_Write_ADC_5v_ID2_P60
                        0x0010321d    0x1c  Code  Gb  rte.o [1]
RTE_Write_ADC_5v_ID3_P49
                        0x001031e1    0x20  Code  Gb  rte.o [1]
RTE_Write_ADC_5v_ID5_P50
                        0x001031c1    0x20  Code  Gb  rte.o [1]
RTE_Write_ADC_5v_ID6_P39
                        0x0010328d    0x1c  Code  Gb  rte.o [1]
RTE_Write_ADC_5v_ID7_P40
                        0x00103201    0x1c  Code  Gb  rte.o [1]
RTE_Write_ADC_5v_ID8_P30
                        0x0010317d    0x20  Code  Gb  rte.o [1]
RTE_Write_ADC_5v_ID9_P29
                        0x0010319d    0x20  Code  Gb  rte.o [1]
RTE_Write_ADC_Internal_ID4
                        0x00103239    0x1c  Code  Gb  rte.o [1]
RTE_Write_APP_100MS_OUT1
                        0x00102f99    0x20  Code  Gb  rte.o [1]
RTE_Write_APP_1MS_OUT1  0x00104721    0x1c  Code  Gb  rte.o [1]
RTE_Write_APP_50MS_OUT1
                        0x00104769    0x1c  Code  Gb  rte.o [1]
RTE_Write_App_10ms      0x0010313d    0x20  Code  Gb  rte.o [1]
RTE_Write_D1            0x001039a5    0x1e  Code  Gb  rte.o [1]
RTE_Write_D2            0x00104051    0x20  Code  Gb  rte.o [1]
RTE_Write_D3            0x00103987    0x1e  Code  Gb  rte.o [1]
RTE_Write_DIN_P21_AH    0x0010372d    0x20  Code  Gb  rte.o [1]
RTE_Write_DIN_P22_AH    0x0010368d    0x20  Code  Gb  rte.o [1]
RTE_Write_DIN_P23_AH    0x00103649    0x20  Code  Gb  rte.o [1]
RTE_Write_DIN_P24_AH    0x001037c7    0x1e  Code  Gb  rte.o [1]
RTE_Write_DIN_P25_AL    0x0010385d    0x1e  Code  Gb  rte.o [1]
RTE_Write_DIN_P26_AL    0x001037e5    0x1e  Code  Gb  rte.o [1]
RTE_Write_DIN_P27_AH    0x0010376d    0x1e  Code  Gb  rte.o [1]
RTE_Write_DIN_P28_AL    0x00103821    0x1e  Code  Gb  rte.o [1]
RTE_Write_DIN_P31_AH    0x001036ed    0x20  Code  Gb  rte.o [1]
RTE_Write_DIN_P33_AH    0x0010383f    0x1e  Code  Gb  rte.o [1]
RTE_Write_DIN_P34_AL    0x0010366d    0x20  Code  Gb  rte.o [1]
RTE_Write_DIN_P35_AL    0x00103803    0x1e  Code  Gb  rte.o [1]
RTE_Write_DIN_P36_AL    0x00104029    0x20  Code  Gb  rte.o [1]
RTE_Write_DIN_P37_AH    0x001037a9    0x1e  Code  Gb  rte.o [1]
RTE_Write_DIN_P38_AL    0x0010378b    0x1e  Code  Gb  rte.o [1]
RTE_Write_DIN_P41_AH    0x0010370d    0x20  Code  Gb  rte.o [1]
RTE_Write_DIN_P42_AH    0x001036ad    0x20  Code  Gb  rte.o [1]
RTE_Write_DIN_P51_AH    0x001036cd    0x20  Code  Gb  rte.o [1]
RTE_Write_DIN_P61_AH    0x0010374d    0x20  Code  Gb  rte.o [1]
RTE_Write_DTC_BMS_Monitor
                        0x00104691    0x1c  Code  Gb  rte.o [1]
RTE_Write_DTC_Test1FL1_Monitor
                        0x00104391    0x1e  Code  Gb  rte.o [1]
RTE_Write_DTC_Test1FL2_Monitor
                        0x0010436d    0x1e  Code  Gb  rte.o [1]
RTE_Write_DTC_Test1War_Monitor
                        0x001043b5    0x1e  Code  Gb  rte.o [1]
RTE_Write_DTC_Test2FL1_Monitor
                        0x00104325    0x1e  Code  Gb  rte.o [1]
RTE_Write_DTC_Test2FL2_Monitor
                        0x00104301    0x1e  Code  Gb  rte.o [1]
RTE_Write_DTC_Test2War_Monitor
                        0x00104349    0x1e  Code  Gb  rte.o [1]
RTE_Write_DTC_Test3FL1_Monitor
                        0x001042bd    0x1e  Code  Gb  rte.o [1]
RTE_Write_DTC_Test3FL2_Monitor
                        0x00104299    0x1e  Code  Gb  rte.o [1]
RTE_Write_DTC_Test3War_Monitor
                        0x001042dd    0x1e  Code  Gb  rte.o [1]
RTE_Write_DTC_Test4FL1_Monitor
                        0x00104251    0x20  Code  Gb  rte.o [1]
RTE_Write_DTC_Test4FL2_Monitor
                        0x0010422d    0x20  Code  Gb  rte.o [1]
RTE_Write_DTC_Test4War_Monitor
                        0x00104275    0x20  Code  Gb  rte.o [1]
RTE_Write_DTC_Test5FL1_Monitor
                        0x001041e1    0x20  Code  Gb  rte.o [1]
RTE_Write_DTC_Test5FL2_Monitor
                        0x001041bd    0x20  Code  Gb  rte.o [1]
RTE_Write_DTC_Test5War_Monitor
                        0x00104209    0x20  Code  Gb  rte.o [1]
RTE_Write_DataCount     0x00103bad    0x20  Code  Gb  rte.o [1]
RTE_Write_Data_Count2   0x00103945    0x1e  Code  Gb  rte.o [1]
RTE_Write_Erase         0x00103ad5    0x20  Code  Gb  rte.o [1]
RTE_Write_FLT_CLR_DTC_BMS_FAULT
                        0x00102e5b    0x1e  Code  Gb  rte.o [1]
RTE_Write_FLT_CLR_DTC_NONAME_10
                        0x00102f31    0x20  Code  Gb  rte.o [1]
RTE_Write_FLT_CLR_DTC_NONAME_5
                        0x00102dd3    0x1e  Code  Gb  rte.o [1]
RTE_Write_FLT_CLR_DTC_NONAME_6
                        0x00102e17    0x1e  Code  Gb  rte.o [1]
RTE_Write_FLT_CLR_DTC_NONAME_8
                        0x00102e9f    0x1e  Code  Gb  rte.o [1]
RTE_Write_FLT_CLR_DTC_NONAME_9
                        0x00102ee9    0x20  Code  Gb  rte.o [1]
RTE_Write_FLT_SystemErrorSeverity
                        0x00102f79    0x20  Code  Gb  rte.o [1]
RTE_Write_FLT_System_Monitor
                        0x00104671    0x1c  Code  Gb  rte.o [1]
RTE_Write_HBridge2_Direction_Pin_out
                        0x00103001    0x20  Code  Gb  rte.o [1]
RTE_Write_HBridge2_Out  0x00102fe1    0x20  Code  Gb  rte.o [1]
RTE_Write_HSD_DATA      0x00104175    0x20  Code  Gb  rte.o [1]
RTE_Write_LSD_DATA      0x0010412d    0x20  Code  Gb  rte.o [1]
RTE_Write_PWM_IN_P13_Duty
                        0x0010387b    0x1e  Code  Gb  rte.o [1]
RTE_Write_PWM_IN_P13_Freq
                        0x00104199    0x20  Code  Gb  rte.o [1]
RTE_Write_PWM_IN_P14_Duty
                        0x001038b7    0x1e  Code  Gb  rte.o [1]
RTE_Write_PWM_IN_P14_Freq
                        0x00103969    0x1e  Code  Gb  rte.o [1]
RTE_Write_PWM_IN_P62_Duty
                        0x00103899    0x1e  Code  Gb  rte.o [1]
RTE_Write_PWM_IN_P62_Freq
                        0x00103a27    0x1e  Code  Gb  rte.o [1]
RTE_Write_RTE_EEPROM_Value_Read
                        0x00103bd1    0x20  Code  Gb  rte.o [1]
RTE_Write_RTE_Erase_Enable
                        0x00103ab5    0x20  Code  Gb  rte.o [1]
RTE_Write_RTE_Write_Enable
                        0x00103b45    0x20  Code  Gb  rte.o [1]
RTE_Write_ReadData      0x00103927    0x1e  Code  Gb  rte.o [1]
RTE_Write_Readdata2     0x00103b65    0x20  Code  Gb  rte.o [1]
RTE_Write_Temp1         0x001033d5    0x20  Code  Gb  rte.o [1]
RTE_Write_Temp2         0x001033f5    0x20  Code  Gb  rte.o [1]
RTE_Write_Test_1ms_Monitor
                        0x001046d9    0x1c  Code  Gb  rte.o [1]
RTE_Write_Updated_Data  0x00103a91    0x1e  Code  Gb  rte.o [1]
RTE_Write_Write         0x00104151    0x20  Code  Gb  rte.o [1]
RTE_astrData            0x08004154   0xb50  Data  Gb  rte.o [1]
RTE_eReadData           0x001047e1    0x1e  Code  Gb  rte.o [1]
RTE_eWriteData          0x001047ff    0x1e  Code  Gb  rte.o [1]
RTE_vdDeInit            0x001047c9    0x18  Code  Gb  rte.o [1]
RTE_vdInit              0x001047b1    0x18  Code  Gb  rte.o [1]
RTICOMP0                0xfffffc50     0x4  Data  Gb  uc_timer.o [1]
RTICPUC0                0xfffffc18     0x4  Data  Gb  uc_timer.o [1]
RTIFRC0                 0xfffffc10     0x4  Data  Gb  uc_timer.o [1]
RTIUDCP0                0xfffffc54     0x4  Data  Gb  uc_timer.o [1]
Region$$Table$$Base     0x00118de4           --   Gb  - Linker created -
Region$$Table$$Limit    0x00118e04           --   Gb  - Linker created -
SVC_STACK$$Base         0x0800ac78           --   Gb  - Linker created -
SVC_STACK$$Limit        0x0800ae78           --   Gb  - Linker created -
SWI_Handler             0x0010e729     0xe  Code  Gb  uc_system.o [1]
SYS_vdDeInit            0x001155e5    0x18  Code  Gb  main.o [1]
SYS_vdInit              0x00115549    0x5e  Code  Gb  main.o [1]
UC_ADC_astrChIdDecode   0x0800ba18    0x30  Data  Gb  uc_adc.o [1]
UC_ADC_astrModule       0x080052dc    0x14  Data  Gb  uc_adc_cfg.o [1]
UC_ADC_astrObj          0x08004ca4   0x5d8  Data  Gb  uc_adc.o [1]
UC_ADC_astrSignals      0x0800527c    0x60  Data  Gb  uc_adc_cfg.o [1]
UC_ADC_eReadAnalogSignal
                        0x0010820b    0x44  Code  Gb  uc_adc.o [1]
UC_ADC_vdInit           0x00107b95   0x5e8  Code  Gb  uc_adc.o [1]
UC_ADC_vdMgr            0x0010817d    0x8e  Code  Gb  uc_adc.o [1]
UC_CAN_astrModule       0x08005c18    0x6c  Data  Gb  uc_can_cfg.o [1]
UC_CAN_astrMsgRx1       0x080059e8    0xa0  Data  Gb  uc_can_cfg.o [1]
UC_CAN_astrMsgRx2       0x08005b00    0x50  Data  Gb  uc_can_cfg.o [1]
UC_CAN_astrMsgRx3       0x08005bc8    0x50  Data  Gb  uc_can_cfg.o [1]
UC_CAN_astrMsgTx1       0x08005830   0x1b8  Data  Gb  uc_can_cfg.o [1]
UC_CAN_astrMsgTx2       0x08005a88    0x78  Data  Gb  uc_can_cfg.o [1]
UC_CAN_astrMsgTx3       0x08005b50    0x78  Data  Gb  uc_can_cfg.o [1]
UC_CAN_astrObj          0x080052f0   0x540  Data  Gb  uc_can.o [1]
UC_CAN_eEnableFrame     0x0010a8b3    0x80  Code  Gb  uc_can.o [1]
UC_CAN_eGetFrameIndex   0x0010a77d   0x136  Code  Gb  uc_can.o [1]
UC_CAN_eReadCanFrameAsync
                        0x0010a0f7    0xca  Code  Gb  uc_can.o [1]
UC_CAN_eReadCanFrameSync
                        0x0010a521   0x258  Code  Gb  uc_can.o [1]
UC_CAN_eRegisterCallbackForMsgEvent
                        0x00109faf    0xb8  Code  Gb  uc_can.o [1]
UC_CAN_eWriteCanFrameAsync
                        0x0010a067    0x90  Code  Gb  uc_can.o [1]
UC_CAN_eWriteCanFrameSync
                        0x0010a1c1   0x348  Code  Gb  uc_can.o [1]
UC_CAN_vdInit           0x0010897d   0xf14  Code  Gb  uc_can.o [1]
UC_CAN_vdMgr            0x00109895   0x71a  Code  Gb  uc_can.o [1]
UC_DIO_astrInput        0x080060f4    0x48  Data  Gb  uc_dio_cfg.o [1]
UC_DIO_astrIntInputIdDecode
                        0x0800b948    0x40  Data  Gb  uc_dio.o [1]
UC_DIO_astrObj          0x08005c84   0x200  Data  Gb  uc_dio.o [1]
UC_DIO_astrOutput       0x08005e84   0x270  Data  Gb  uc_dio_cfg.o [1]
UC_DIO_eCommandOutputPin
                        0x0010cf05    0xde  Code  Gb  uc_dio.o [1]
UC_DIO_eReadInputPin    0x0010cfe3    0x58  Code  Gb  uc_dio.o [1]
UC_DIO_eRegisterInputEventClbk
                        0x0010d03b    0x32  Code  Gb  uc_dio.o [1]
UC_DIO_vdInit           0x0010ccb9   0x24a  Code  Gb  uc_dio.o [1]
UC_DIO_vdMgr            0x0010cf03     0x2  Code  Gb  uc_dio.o [1]
UC_EEPROM_ERASE_SECTOR  0x0010ed11    0x8e  Code  Gb  uc_eeprom.o [1]
UC_EEPROM_READ          0x0010eca7    0x6a  Code  Gb  uc_eeprom.o [1]
UC_EEPROM_WRITE         0x0010ec31    0x76  Code  Gb  uc_eeprom.o [1]
UC_EEPROM_vdDeInit      0x0010ebcf    0x62  Code  Gb  uc_eeprom.o [1]
UC_EEPROM_vdInit        0x0010eb6d    0x62  Code  Gb  uc_eeprom.o [1]
UC_PWM_PIN_astrPin      0x0800629c    0x70  Data  Gb  uc_pwm_cfg.o [1]
UC_PWM_PIN_eRead        0x0010d6c3    0x48  Code  Gb  uc_pwm.o [1]
UC_PWM_POUT_astrPin     0x0800630c    0xc0  Data  Gb  uc_pwm_cfg.o [1]
UC_PWM_POUT_eAdjustPinValue
                        0x0010d9c1    0x58  Code  Gb  uc_pwm.o [1]
UC_PWM_POUT_eDutyCycleChange
                        0x0010d841    0xd8  Code  Gb  uc_pwm.o [1]
UC_PWM_POUT_eFreezeCurrentState
                        0x0010d943    0x50  Code  Gb  uc_pwm.o [1]
UC_PWM_POUT_eFrequencyChange
                        0x0010d70d   0x134  Code  Gb  uc_pwm.o [1]
UC_PWM_POUT_eResetToDefault
                        0x0010d919    0x2a  Code  Gb  uc_pwm.o [1]
UC_PWM_POUT_eReturnControlToECU
                        0x0010d993    0x2e  Code  Gb  uc_pwm.o [1]
UC_PWM_astrProgramInstruction
                        0x0800613c   0x160  Data  Gb  uc_pwm.o [1]
UC_PWM_fltLRP_Frequency
                        0x0800bb3c     0x4  Data  Gb  uc_pwm.o [1]
UC_PWM_fltLRP_Time      0x0800bb40     0x4  Data  Gb  uc_pwm.o [1]
UC_PWM_u8ReadyFlag      0x0800bb8c     0x1  Data  Gb  uc_pwm.o [1]
UC_PWM_vdInit           0x0010d1d9   0x48a  Code  Gb  uc_pwm.o [1]
UC_PWM_vdPinMgr         0x0010d66b    0x58  Code  Gb  uc_pwm.o [1]
UC_PWM_vdPoutMgr        0x0010d669     0x2  Code  Gb  uc_pwm.o [1]
UC_SPI_astrMibIndex0Device
                        0x0800688c    0xb4  Data  Gb  uc_spi_cfg.o [1]
UC_SPI_astrMibModule    0x08006940    0x78  Data  Gb  uc_spi_cfg.o [1]
UC_SPI_astrMibObj       0x080063cc   0x4c0  Data  Gb  uc_spi.o [1]
UC_SPI_eRegisterDeviceDataRxClbk
                        0x0010c407    0x60  Code  Gb  uc_spi.o [1]
UC_SPI_eSendSpiFrame    0x0010c467    0xfe  Code  Gb  uc_spi.o [1]
UC_SPI_eSendSpiFrameSync
                        0x0010c565   0x10c  Code  Gb  uc_spi.o [1]
UC_SPI_vdInit           0x0010b101  0x11de  Code  Gb  uc_spi.o [1]
UC_SPI_vdMgr            0x0010c2e5   0x122  Code  Gb  uc_spi.o [1]
UC_SYSTEM_STOP_u32Address
                        0x0800bb48     0x4  Data  Gb  uc_system.o [1]
UC_SYSTEM_STOP_u32Signal
                        0x0800bb44     0x4  Data  Gb  uc_system.o [1]
UC_SYS_vdEnableISR      0x0010e63d    0x4a  Code  Gb  uc_system.o [1]
UC_SYS_vdEnableInterrupts
                        0x0010e687     0x4  Code  Gb  uc_system.o [1]
UC_SYS_vdInit           0x0010e68b    0x52  Code  Gb  uc_system.o [1]
UC_SYS_vdJumpToAddress  0x08006c69     0x6  Code  Gb  uc_system.o [1]
UC_SYS_vdRegisterISR    0x0010e629    0x14  Code  Gb  uc_system.o [1]
UC_SYS_vdSleep          0x0010e6f1     0x2  Code  Gb  uc_system.o [1]
UC_SYS_vdSwReset        0x0010e6dd    0x14  Code  Gb  uc_system.o [1]
UC_TIMER_pftTickCallback
                        0x0800bb4c     0x4  Data  Gb  uc_timer.o [1]
UC_TIMER_strTimeOutSignals
                        0x080069b8    0xa0  Data  Gb  uc_timer_cfg.o [1]
UC_TIMER_u32TimerTickUs
                        0x0010f0e1     0x8  Code  Gb  uc_timer.o [1]
UC_TIMER_vdDeregisterTimeOutSignal
                        0x0010f0ab    0x1a  Code  Gb  uc_timer.o [1]
UC_TIMER_vdDisable      0x0010f0d3     0xe  Code  Gb  uc_timer.o [1]
UC_TIMER_vdEnable       0x0010f0c5     0xe  Code  Gb  uc_timer.o [1]
UC_TIMER_vdInit         0x0010f009    0x6e  Code  Gb  uc_timer.o [1]
UC_TIMER_vdRegisterTickCallback
                        0x0010f077     0x6  Code  Gb  uc_timer.o [1]
UC_TIMER_vdRegisterTimeOutSignal
                        0x0010f07d    0x2e  Code  Gb  uc_timer.o [1]
UC_UART_astrHandler     0x08006a58    0x88  Data  Gb  uc_uart _cfg.o [1]
UC_UART_astrObj         0x08006ae0   0x180  Data  Gb  uc_uart.o [1]
UC_UART_eDisableRx      0x00112e29    0x3a  Code  Gb  uc_uart.o [1]
UC_UART_eEnableRx       0x00112e63    0x3a  Code  Gb  uc_uart.o [1]
UC_UART_eRegisterDataRxClbk
                        0x00112ca1    0x46  Code  Gb  uc_uart.o [1]
UC_UART_eSendBytesSync  0x00112ce7   0x142  Code  Gb  uc_uart.o [1]
UC_UART_vdInit          0x00112475   0x82a  Code  Gb  uc_uart.o [1]
UC_UART_vdMgr           0x00112c9f     0x2  Code  Gb  uc_uart.o [1]
UC_vdDeInit             0x00115625     0x8  Code  Gb  uc.o [1]
UC_vdInit               0x001155fd    0x28  Code  Gb  uc.o [1]
UND_STACK$$Base         0x0800b278           --   Gb  - Linker created -
UND_STACK$$Limit        0x0800b478           --   Gb  - Linker created -
Undefined_Handler       0x0010e737     0xe  Code  Gb  uc_system.o [1]
VIM_DCAN1L0_Handler     0x0010afb0    0x38  Code  Gb  uc_can.o [1]
VIM_DCAN1L1_Handler     0x0010afe8    0x38  Code  Gb  uc_can.o [1]
VIM_DCAN2L0_Handler     0x0010b020    0x38  Code  Gb  uc_can.o [1]
VIM_DCAN2L1_Handler     0x0010b058    0x38  Code  Gb  uc_can.o [1]
VIM_DCAN3L0_Handler     0x0010b090    0x38  Code  Gb  uc_can.o [1]
VIM_DCAN3L1_Handler     0x0010b0c8    0x38  Code  Gb  uc_can.o [1]
VIM_GIOA_Handler        0x0010d124    0x40  Code  Gb  uc_dio.o [1]
VIM_GIOB_Handler        0x0010d164    0x40  Code  Gb  uc_dio.o [1]
VIM_LINL0_Handler       0x00113038    0x34  Code  Gb  uc_uart.o [1]
VIM_LINL1_Handler       0x0011306c    0x34  Code  Gb  uc_uart.o [1]
VIM_MIBSPI3L0_Handler   0x0010cc50    0x34  Code  Gb  uc_spi.o [1]
VIM_MIBSPI3L1_Handler   0x0010cc84    0x34  Code  Gb  uc_spi.o [1]
VIM_RAM_BASE            0xfff82000     0x4  Data  Gb  uc_system.o [1]
VIM_RTIC0_Handler       0x0010f0e8   0x160  Code  Gb  uc_timer.o [1]
VIM_SCIL0_Handler       0x001130a0    0x34  Code  Gb  uc_uart.o [1]
VIM_SCIL1_Handler       0x001130d4    0x34  Code  Gb  uc_uart.o [1]
_A_AD1BNDCR             0xfff7c058     0x4  Data  Gb  uc_adc.o [1]
_A_AD1BNDEND            0xfff7c05c     0x4  Data  Gb  uc_adc.o [1]
_A_AD1CALCR             0xfff7c00c     0x4  Data  Gb  uc_adc.o [1]
_A_AD1CALR              0xfff7c084     0x4  Data  Gb  uc_adc.o [1]
_A_AD1CLOCKCR           0xfff7c008     0x4  Data  Gb  uc_adc.o [1]
_A_AD1EVBUFFER0         0xfff7c090     0x4  Data  Gb  uc_adc.o [1]
_A_AD1EVBUFFER1         0xfff7c094     0x4  Data  Gb  uc_adc.o [1]
_A_AD1EVBUFFER2         0xfff7c098     0x4  Data  Gb  uc_adc.o [1]
_A_AD1EVBUFFER3         0xfff7c09c     0x4  Data  Gb  uc_adc.o [1]
_A_AD1EVBUFFER4         0xfff7c0a0     0x4  Data  Gb  uc_adc.o [1]
_A_AD1EVBUFFER5         0xfff7c0a4     0x4  Data  Gb  uc_adc.o [1]
_A_AD1EVBUFFER6         0xfff7c0a8     0x4  Data  Gb  uc_adc.o [1]
_A_AD1EVBUFFER7         0xfff7c0ac     0x4  Data  Gb  uc_adc.o [1]
_A_AD1EVDMACR           0xfff7c04c     0x4  Data  Gb  uc_adc.o [1]
_A_AD1EVEMUBUFFER       0xfff7c0f0     0x4  Data  Gb  uc_adc.o [1]
_A_AD1EVFIFORESETCR     0xfff7c168     0x4  Data  Gb  uc_adc.o [1]
_A_AD1EVINTENA          0xfff7c028     0x4  Data  Gb  uc_adc.o [1]
_A_AD1EVINTFLG          0xfff7c034     0x4  Data  Gb  uc_adc.o [1]
_A_AD1EVMODECR          0xfff7c010     0x4  Data  Gb  uc_adc.o [1]
_A_AD1EVRAMWRADDR       0xfff7c174     0x4  Data  Gb  uc_adc.o [1]
_A_AD1EVSAMP            0xfff7c060     0x4  Data  Gb  uc_adc.o [1]
_A_AD1EVSAMPDISEN       0xfff7c11c     0x4  Data  Gb  uc_adc.o [1]
_A_AD1EVSEL             0xfff7c078     0x4  Data  Gb  uc_adc.o [1]
_A_AD1EVSR              0xfff7c06c     0x4  Data  Gb  uc_adc.o [1]
_A_AD1EVSRC             0xfff7c01c     0x4  Data  Gb  uc_adc.o [1]
_A_AD1EVTCLR            0xfff7c10c     0x4  Data  Gb  uc_dio.o [1]
_A_AD1EVTDIR            0xfff7c0fc     0x4  Data  Gb  uc_dio.o [1]
_A_AD1EVTHRINTCR        0xfff7c040     0x4  Data  Gb  uc_adc.o [1]
_A_AD1EVTIN             0xfff7c104     0x4  Data  Gb  uc_dio.o [1]
_A_AD1EVTOUT            0xfff7c100     0x4  Data  Gb  uc_dio.o [1]
_A_AD1EVTPDIS           0xfff7c114     0x4  Data  Gb  uc_dio.o [1]
_A_AD1EVTPDR            0xfff7c110     0x4  Data  Gb  uc_dio.o [1]
_A_AD1EVTPSEL           0xfff7c118     0x4  Data  Gb  uc_dio.o [1]
_A_AD1EVTSET            0xfff7c108     0x4  Data  Gb  uc_dio.o [1]
_A_AD1G1BUFFER0         0xfff7c0b0     0x4  Data  Gb  uc_adc.o [1]
_A_AD1G1BUFFER1         0xfff7c0b4     0x4  Data  Gb  uc_adc.o [1]
_A_AD1G1BUFFER2         0xfff7c0b8     0x4  Data  Gb  uc_adc.o [1]
_A_AD1G1BUFFER3         0xfff7c0bc     0x4  Data  Gb  uc_adc.o [1]
_A_AD1G1BUFFER4         0xfff7c0c0     0x4  Data  Gb  uc_adc.o [1]
_A_AD1G1BUFFER5         0xfff7c0c4     0x4  Data  Gb  uc_adc.o [1]
_A_AD1G1BUFFER6         0xfff7c0c8     0x4  Data  Gb  uc_adc.o [1]
_A_AD1G1BUFFER7         0xfff7c0cc     0x4  Data  Gb  uc_adc.o [1]
_A_AD1G1DMACR           0xfff7c050     0x4  Data  Gb  uc_adc.o [1]
_A_AD1G1EMUBUFFER       0xfff7c0f4     0x4  Data  Gb  uc_adc.o [1]
_A_AD1G1FIFORESETCR     0xfff7c16c     0x4  Data  Gb  uc_adc.o [1]
_A_AD1G1INTENA          0xfff7c02c     0x4  Data  Gb  uc_adc.o [1]
_A_AD1G1INTFLG          0xfff7c038     0x4  Data  Gb  uc_adc.o [1]
_A_AD1G1MODECR          0xfff7c014     0x4  Data  Gb  uc_adc.o [1]
_A_AD1G1RAMWRADDR       0xfff7c178     0x4  Data  Gb  uc_adc.o [1]
_A_AD1G1SAMP            0xfff7c064     0x4  Data  Gb  uc_adc.o [1]
_A_AD1G1SAMPDISEN       0xfff7c120     0x4  Data  Gb  uc_adc.o [1]
_A_AD1G1SEL             0xfff7c07c     0x4  Data  Gb  uc_adc.o [1]
_A_AD1G1SR              0xfff7c070     0x4  Data  Gb  uc_adc.o [1]
_A_AD1G1SRC             0xfff7c020     0x4  Data  Gb  uc_adc.o [1]
_A_AD1G1THRINTCR        0xfff7c044     0x4  Data  Gb  uc_adc.o [1]
_A_AD1G2BUFFER0         0xfff7c0d0     0x4  Data  Gb  uc_adc.o [1]
_A_AD1G2BUFFER1         0xfff7c0d4     0x4  Data  Gb  uc_adc.o [1]
_A_AD1G2BUFFER2         0xfff7c0d8     0x4  Data  Gb  uc_adc.o [1]
_A_AD1G2BUFFER3         0xfff7c0dc     0x4  Data  Gb  uc_adc.o [1]
_A_AD1G2BUFFER4         0xfff7c0e0     0x4  Data  Gb  uc_adc.o [1]
_A_AD1G2BUFFER5         0xfff7c0e4     0x4  Data  Gb  uc_adc.o [1]
_A_AD1G2BUFFER6         0xfff7c0e8     0x4  Data  Gb  uc_adc.o [1]
_A_AD1G2BUFFER7         0xfff7c0ec     0x4  Data  Gb  uc_adc.o [1]
_A_AD1G2DMACR           0xfff7c054     0x4  Data  Gb  uc_adc.o [1]
_A_AD1G2EMUBUFFER       0xfff7c0f8     0x4  Data  Gb  uc_adc.o [1]
_A_AD1G2FIFORESETCR     0xfff7c170     0x4  Data  Gb  uc_adc.o [1]
_A_AD1G2INTENA          0xfff7c030     0x4  Data  Gb  uc_adc.o [1]
_A_AD1G2INTFLG          0xfff7c03c     0x4  Data  Gb  uc_adc.o [1]
_A_AD1G2MODECR          0xfff7c018     0x4  Data  Gb  uc_adc.o [1]
_A_AD1G2RAMWRADDR       0xfff7c17c     0x4  Data  Gb  uc_adc.o [1]
_A_AD1G2SAMP            0xfff7c068     0x4  Data  Gb  uc_adc.o [1]
_A_AD1G2SAMPDISEN       0xfff7c124     0x4  Data  Gb  uc_adc.o [1]
_A_AD1G2SEL             0xfff7c080     0x4  Data  Gb  uc_adc.o [1]
_A_AD1G2SR              0xfff7c074     0x4  Data  Gb  uc_adc.o [1]
_A_AD1G2SRC             0xfff7c024     0x4  Data  Gb  uc_adc.o [1]
_A_AD1G2THRINTCR        0xfff7c048     0x4  Data  Gb  uc_adc.o [1]
_A_AD1LASTCONV          0xfff7c08c     0x4  Data  Gb  uc_adc.o [1]
_A_AD1MAGINT1CR         0xfff7c128     0x4  Data  Gb  uc_adc.o [1]
_A_AD1MAGINT1MASK       0xfff7c12c     0x4  Data  Gb  uc_adc.o [1]
_A_AD1MAGINT2CR         0xfff7c130     0x4  Data  Gb  uc_adc.o [1]
_A_AD1MAGINT2MASK       0xfff7c134     0x4  Data  Gb  uc_adc.o [1]
_A_AD1MAGINT3CR         0xfff7c138     0x4  Data  Gb  uc_adc.o [1]
_A_AD1MAGINT3MASK       0xfff7c13c     0x4  Data  Gb  uc_adc.o [1]
_A_AD1MAGINTENACLR      0xfff7c15c     0x4  Data  Gb  uc_adc.o [1]
_A_AD1MAGINTENASET      0xfff7c158     0x4  Data  Gb  uc_adc.o [1]
_A_AD1MAGINTFLG         0xfff7c160     0x4  Data  Gb  uc_adc.o [1]
_A_AD1MAGINTOFF         0xfff7c164     0x4  Data  Gb  uc_adc.o [1]
_A_AD1OPMODECR          0xfff7c004     0x4  Data  Gb  uc_adc.o [1]
_A_AD1PARADDR           0xfff7c184     0x4  Data  Gb  uc_adc.o [1]
_A_AD1PARCR             0xfff7c180     0x4  Data  Gb  uc_adc.o [1]
_A_AD1PWRUPDLYCTRL      0xfff7c188     0x4  Data  Gb  uc_adc.o [1]
_A_AD1RSTCR             0xfff7c000     0x4  Data  Gb  uc_adc.o [1]
_A_AD1SMSTATE           0xfff7c088     0x4  Data  Gb  uc_adc.o [1]
_A_AD2BNDCR             0xfff7c258     0x4  Data  Gb  uc_adc.o [1]
_A_AD2BNDEND            0xfff7c25c     0x4  Data  Gb  uc_adc.o [1]
_A_AD2CALCR             0xfff7c20c     0x4  Data  Gb  uc_adc.o [1]
_A_AD2CALR              0xfff7c284     0x4  Data  Gb  uc_adc.o [1]
_A_AD2CLOCKCR           0xfff7c208     0x4  Data  Gb  uc_adc.o [1]
_A_AD2EVBUFFER0         0xfff7c290     0x4  Data  Gb  uc_adc.o [1]
_A_AD2EVBUFFER1         0xfff7c294     0x4  Data  Gb  uc_adc.o [1]
_A_AD2EVBUFFER2         0xfff7c298     0x4  Data  Gb  uc_adc.o [1]
_A_AD2EVBUFFER3         0xfff7c29c     0x4  Data  Gb  uc_adc.o [1]
_A_AD2EVBUFFER4         0xfff7c2a0     0x4  Data  Gb  uc_adc.o [1]
_A_AD2EVBUFFER5         0xfff7c2a4     0x4  Data  Gb  uc_adc.o [1]
_A_AD2EVBUFFER6         0xfff7c2a8     0x4  Data  Gb  uc_adc.o [1]
_A_AD2EVBUFFER7         0xfff7c2ac     0x4  Data  Gb  uc_adc.o [1]
_A_AD2EVDMACR           0xfff7c24c     0x4  Data  Gb  uc_adc.o [1]
_A_AD2EVEMUBUFFER       0xfff7c2f0     0x4  Data  Gb  uc_adc.o [1]
_A_AD2EVFIFORESETCR     0xfff7c368     0x4  Data  Gb  uc_adc.o [1]
_A_AD2EVINTENA          0xfff7c228     0x4  Data  Gb  uc_adc.o [1]
_A_AD2EVINTFLG          0xfff7c234     0x4  Data  Gb  uc_adc.o [1]
_A_AD2EVMODECR          0xfff7c210     0x4  Data  Gb  uc_adc.o [1]
_A_AD2EVRAMWRADDR       0xfff7c374     0x4  Data  Gb  uc_adc.o [1]
_A_AD2EVSAMP            0xfff7c260     0x4  Data  Gb  uc_adc.o [1]
_A_AD2EVSAMPDISEN       0xfff7c31c     0x4  Data  Gb  uc_adc.o [1]
_A_AD2EVSEL             0xfff7c278     0x4  Data  Gb  uc_adc.o [1]
_A_AD2EVSR              0xfff7c26c     0x4  Data  Gb  uc_adc.o [1]
_A_AD2EVSRC             0xfff7c21c     0x4  Data  Gb  uc_adc.o [1]
_A_AD2EVTCLR            0xfff7c30c     0x4  Data  Gb  uc_adc.o [1]
_A_AD2EVTDIR            0xfff7c2fc     0x4  Data  Gb  uc_adc.o [1]
_A_AD2EVTHRINTCR        0xfff7c240     0x4  Data  Gb  uc_adc.o [1]
_A_AD2EVTIN             0xfff7c304     0x4  Data  Gb  uc_adc.o [1]
_A_AD2EVTOUT            0xfff7c300     0x4  Data  Gb  uc_adc.o [1]
_A_AD2EVTPDIS           0xfff7c314     0x4  Data  Gb  uc_adc.o [1]
_A_AD2EVTPDR            0xfff7c310     0x4  Data  Gb  uc_adc.o [1]
_A_AD2EVTPSEL           0xfff7c318     0x4  Data  Gb  uc_adc.o [1]
_A_AD2EVTSET            0xfff7c308     0x4  Data  Gb  uc_adc.o [1]
_A_AD2G1BUFFER0         0xfff7c2b0     0x4  Data  Gb  uc_adc.o [1]
_A_AD2G1BUFFER1         0xfff7c2b4     0x4  Data  Gb  uc_adc.o [1]
_A_AD2G1BUFFER2         0xfff7c2b8     0x4  Data  Gb  uc_adc.o [1]
_A_AD2G1BUFFER3         0xfff7c2bc     0x4  Data  Gb  uc_adc.o [1]
_A_AD2G1BUFFER4         0xfff7c2c0     0x4  Data  Gb  uc_adc.o [1]
_A_AD2G1BUFFER5         0xfff7c2c4     0x4  Data  Gb  uc_adc.o [1]
_A_AD2G1BUFFER6         0xfff7c2c8     0x4  Data  Gb  uc_adc.o [1]
_A_AD2G1BUFFER7         0xfff7c2cc     0x4  Data  Gb  uc_adc.o [1]
_A_AD2G1DMACR           0xfff7c250     0x4  Data  Gb  uc_adc.o [1]
_A_AD2G1EMUBUFFER       0xfff7c2f4     0x4  Data  Gb  uc_adc.o [1]
_A_AD2G1FIFORESETCR     0xfff7c36c     0x4  Data  Gb  uc_adc.o [1]
_A_AD2G1INTENA          0xfff7c22c     0x4  Data  Gb  uc_adc.o [1]
_A_AD2G1INTFLG          0xfff7c238     0x4  Data  Gb  uc_adc.o [1]
_A_AD2G1MODECR          0xfff7c214     0x4  Data  Gb  uc_adc.o [1]
_A_AD2G1RAMWRADDR       0xfff7c378     0x4  Data  Gb  uc_adc.o [1]
_A_AD2G1SAMP            0xfff7c264     0x4  Data  Gb  uc_adc.o [1]
_A_AD2G1SAMPDISEN       0xfff7c320     0x4  Data  Gb  uc_adc.o [1]
_A_AD2G1SEL             0xfff7c27c     0x4  Data  Gb  uc_adc.o [1]
_A_AD2G1SR              0xfff7c270     0x4  Data  Gb  uc_adc.o [1]
_A_AD2G1SRC             0xfff7c220     0x4  Data  Gb  uc_adc.o [1]
_A_AD2G1THRINTCR        0xfff7c244     0x4  Data  Gb  uc_adc.o [1]
_A_AD2G2BUFFER0         0xfff7c2d0     0x4  Data  Gb  uc_adc.o [1]
_A_AD2G2BUFFER1         0xfff7c2d4     0x4  Data  Gb  uc_adc.o [1]
_A_AD2G2BUFFER2         0xfff7c2d8     0x4  Data  Gb  uc_adc.o [1]
_A_AD2G2BUFFER3         0xfff7c2dc     0x4  Data  Gb  uc_adc.o [1]
_A_AD2G2BUFFER4         0xfff7c2e0     0x4  Data  Gb  uc_adc.o [1]
_A_AD2G2BUFFER5         0xfff7c2e4     0x4  Data  Gb  uc_adc.o [1]
_A_AD2G2BUFFER6         0xfff7c2e8     0x4  Data  Gb  uc_adc.o [1]
_A_AD2G2BUFFER7         0xfff7c2ec     0x4  Data  Gb  uc_adc.o [1]
_A_AD2G2DMACR           0xfff7c254     0x4  Data  Gb  uc_adc.o [1]
_A_AD2G2EMUBUFFER       0xfff7c2f8     0x4  Data  Gb  uc_adc.o [1]
_A_AD2G2FIFORESETCR     0xfff7c370     0x4  Data  Gb  uc_adc.o [1]
_A_AD2G2INTENA          0xfff7c230     0x4  Data  Gb  uc_adc.o [1]
_A_AD2G2INTFLG          0xfff7c23c     0x4  Data  Gb  uc_adc.o [1]
_A_AD2G2MODECR          0xfff7c218     0x4  Data  Gb  uc_adc.o [1]
_A_AD2G2RAMWRADDR       0xfff7c37c     0x4  Data  Gb  uc_adc.o [1]
_A_AD2G2SAMP            0xfff7c268     0x4  Data  Gb  uc_adc.o [1]
_A_AD2G2SAMPDISEN       0xfff7c324     0x4  Data  Gb  uc_adc.o [1]
_A_AD2G2SEL             0xfff7c280     0x4  Data  Gb  uc_adc.o [1]
_A_AD2G2SR              0xfff7c274     0x4  Data  Gb  uc_adc.o [1]
_A_AD2G2SRC             0xfff7c224     0x4  Data  Gb  uc_adc.o [1]
_A_AD2G2THRINTCR        0xfff7c248     0x4  Data  Gb  uc_adc.o [1]
_A_AD2LASTCONV          0xfff7c28c     0x4  Data  Gb  uc_adc.o [1]
_A_AD2MAGINT1CR         0xfff7c328     0x4  Data  Gb  uc_adc.o [1]
_A_AD2MAGINT1MASK       0xfff7c32c     0x4  Data  Gb  uc_adc.o [1]
_A_AD2MAGINT2CR         0xfff7c330     0x4  Data  Gb  uc_adc.o [1]
_A_AD2MAGINT2MASK       0xfff7c334     0x4  Data  Gb  uc_adc.o [1]
_A_AD2MAGINT3CR         0xfff7c338     0x4  Data  Gb  uc_adc.o [1]
_A_AD2MAGINT3MASK       0xfff7c33c     0x4  Data  Gb  uc_adc.o [1]
_A_AD2MAGINTENACLR      0xfff7c35c     0x4  Data  Gb  uc_adc.o [1]
_A_AD2MAGINTENASET      0xfff7c358     0x4  Data  Gb  uc_adc.o [1]
_A_AD2MAGINTFLG         0xfff7c360     0x4  Data  Gb  uc_adc.o [1]
_A_AD2MAGINTOFF         0xfff7c364     0x4  Data  Gb  uc_adc.o [1]
_A_AD2OPMODECR          0xfff7c204     0x4  Data  Gb  uc_adc.o [1]
_A_AD2PARADDR           0xfff7c384     0x4  Data  Gb  uc_adc.o [1]
_A_AD2PARCR             0xfff7c380     0x4  Data  Gb  uc_adc.o [1]
_A_AD2PWRUPDLYCTRL      0xfff7c388     0x4  Data  Gb  uc_adc.o [1]
_A_AD2RSTCR             0xfff7c200     0x4  Data  Gb  uc_adc.o [1]
_A_AD2SMSTATE           0xfff7c288     0x4  Data  Gb  uc_adc.o [1]
_A_CLKCNTL              0xffffffd0     0x4  Data  Gb  low_level_init.o [1]
_A_CLKSLIP              0xffffe170     0x4  Data  Gb  low_level_init.o [1]
_A_CSDIS                0xffffff30     0x4  Data  Gb  low_level_init.o [1]
_A_CSVSTAT              0xffffff54     0x4  Data  Gb  low_level_init.o [1]
_A_DCAN1BTR             0xfff7dc0c     0x4  Data  Gb  uc_can.o [1]
_A_DCAN1CTL             0xfff7dc00     0x4  Data  Gb  uc_can.o [1]
_A_DCAN1ERRC            0xfff7dc08     0x4  Data  Gb  uc_can.o [1]
_A_DCAN1ES              0xfff7dc04     0x4  Data  Gb  uc_can.o [1]
_A_DCAN1IF1ARB          0xfff7dd08     0x4  Data  Gb  uc_can.o [1]
_A_DCAN1IF1CMD          0xfff7dd00     0x4  Data  Gb  uc_can.o [1]
_A_DCAN1IF1DATA         0xfff7dd10     0x4  Data  Gb  uc_can.o [1]
_A_DCAN1IF1DATB         0xfff7dd14     0x4  Data  Gb  uc_can.o [1]
_A_DCAN1IF1MCTL         0xfff7dd0c     0x4  Data  Gb  uc_can.o [1]
_A_DCAN1IF1MSK          0xfff7dd04     0x4  Data  Gb  uc_can.o [1]
_A_DCAN1IF2ARB          0xfff7dd28     0x4  Data  Gb  uc_can.o [1]
_A_DCAN1IF2CMD          0xfff7dd20     0x4  Data  Gb  uc_can.o [1]
_A_DCAN1IF2DATA         0xfff7dd30     0x4  Data  Gb  uc_can.o [1]
_A_DCAN1IF2DATB         0xfff7dd34     0x4  Data  Gb  uc_can.o [1]
_A_DCAN1IF2MCTL         0xfff7dd2c     0x4  Data  Gb  uc_can.o [1]
_A_DCAN1IF2MSK          0xfff7dd24     0x4  Data  Gb  uc_can.o [1]
_A_DCAN1IF3ARB          0xfff7dd48     0x4  Data  Gb  uc_can.o [1]
_A_DCAN1IF3DATA         0xfff7dd50     0x4  Data  Gb  uc_can.o [1]
_A_DCAN1IF3DATB         0xfff7dd54     0x4  Data  Gb  uc_can.o [1]
_A_DCAN1IF3MCTL         0xfff7dd4c     0x4  Data  Gb  uc_can.o [1]
_A_DCAN1IF3MSK          0xfff7dd44     0x4  Data  Gb  uc_can.o [1]
_A_DCAN1IF3OBS          0xfff7dd40     0x4  Data  Gb  uc_can.o [1]
_A_DCAN1IF3UPD12        0xfff7dd60     0x4  Data  Gb  uc_can.o [1]
_A_DCAN1IF3UPD34        0xfff7dd64     0x4  Data  Gb  uc_can.o [1]
_A_DCAN1IF3UPD56        0xfff7dd68     0x4  Data  Gb  uc_can.o [1]
_A_DCAN1IF3UPD78        0xfff7dd6c     0x4  Data  Gb  uc_can.o [1]
_A_DCAN1INT             0xfff7dc10     0x4  Data  Gb  uc_can.o [1]
_A_DCAN1INTMUX12        0xfff7dcd8     0x4  Data  Gb  uc_can.o [1]
_A_DCAN1INTMUX34        0xfff7dcdc     0x4  Data  Gb  uc_can.o [1]
_A_DCAN1INTMUX56        0xfff7dce0     0x4  Data  Gb  uc_can.o [1]
_A_DCAN1INTMUX78        0xfff7dce4     0x4  Data  Gb  uc_can.o [1]
_A_DCAN1INTPND12        0xfff7dcb0     0x4  Data  Gb  uc_can.o [1]
_A_DCAN1INTPND34        0xfff7dcb4     0x4  Data  Gb  uc_can.o [1]
_A_DCAN1INTPND56        0xfff7dcb8     0x4  Data  Gb  uc_can.o [1]
_A_DCAN1INTPND78        0xfff7dcbc     0x4  Data  Gb  uc_can.o [1]
_A_DCAN1INTPNDX         0xfff7dcac     0x4  Data  Gb  uc_can.o [1]
_A_DCAN1MSGVAL12        0xfff7dcc4     0x4  Data  Gb  uc_can.o [1]
_A_DCAN1MSGVAL34        0xfff7dcc8     0x4  Data  Gb  uc_can.o [1]
_A_DCAN1MSGVAL56        0xfff7dccc     0x4  Data  Gb  uc_can.o [1]
_A_DCAN1MSGVAL78        0xfff7dcd0     0x4  Data  Gb  uc_can.o [1]
_A_DCAN1MSGVALX         0xfff7dcc0     0x4  Data  Gb  uc_can.o [1]
_A_DCAN1NWDAT12         0xfff7dc9c     0x4  Data  Gb  uc_can.o [1]
_A_DCAN1NWDAT34         0xfff7dca0     0x4  Data  Gb  uc_can.o [1]
_A_DCAN1NWDAT56         0xfff7dca4     0x4  Data  Gb  uc_can.o [1]
_A_DCAN1NWDAT78         0xfff7dca8     0x4  Data  Gb  uc_can.o [1]
_A_DCAN1NWDATX          0xfff7dc98     0x4  Data  Gb  uc_can.o [1]
_A_DCAN1PERR            0xfff7dc1c     0x4  Data  Gb  uc_can.o [1]
_A_DCAN1RIOC            0xfff7dde4     0x4  Data  Gb  uc_can.o [1]
_A_DCAN1TEST            0xfff7dc14     0x4  Data  Gb  uc_can.o [1]
_A_DCAN1TIOC            0xfff7dde0     0x4  Data  Gb  uc_can.o [1]
_A_DCAN1TXRQ12          0xfff7dc88     0x4  Data  Gb  uc_can.o [1]
_A_DCAN1TXRQ34          0xfff7dc8c     0x4  Data  Gb  uc_can.o [1]
_A_DCAN1TXRQ56          0xfff7dc90     0x4  Data  Gb  uc_can.o [1]
_A_DCAN1TXRQ78          0xfff7dc94     0x4  Data  Gb  uc_can.o [1]
_A_DCAN1TXRQX           0xfff7dc84     0x4  Data  Gb  uc_can.o [1]
_A_DCAN2BTR             0xfff7de0c     0x4  Data  Gb  uc_can.o [1]
_A_DCAN2CTL             0xfff7de00     0x4  Data  Gb  uc_can.o [1]
_A_DCAN2ERRC            0xfff7de08     0x4  Data  Gb  uc_can.o [1]
_A_DCAN2ES              0xfff7de04     0x4  Data  Gb  uc_can.o [1]
_A_DCAN2IF1ARB          0xfff7df08     0x4  Data  Gb  uc_can.o [1]
_A_DCAN2IF1CMD          0xfff7df00     0x4  Data  Gb  uc_can.o [1]
_A_DCAN2IF1DATA         0xfff7df10     0x4  Data  Gb  uc_can.o [1]
_A_DCAN2IF1DATB         0xfff7df14     0x4  Data  Gb  uc_can.o [1]
_A_DCAN2IF1MCTL         0xfff7df0c     0x4  Data  Gb  uc_can.o [1]
_A_DCAN2IF1MSK          0xfff7df04     0x4  Data  Gb  uc_can.o [1]
_A_DCAN2IF2ARB          0xfff7df28     0x4  Data  Gb  uc_can.o [1]
_A_DCAN2IF2CMD          0xfff7df20     0x4  Data  Gb  uc_can.o [1]
_A_DCAN2IF2DATA         0xfff7df30     0x4  Data  Gb  uc_can.o [1]
_A_DCAN2IF2DATB         0xfff7df34     0x4  Data  Gb  uc_can.o [1]
_A_DCAN2IF2MCTL         0xfff7df2c     0x4  Data  Gb  uc_can.o [1]
_A_DCAN2IF2MSK          0xfff7df24     0x4  Data  Gb  uc_can.o [1]
_A_DCAN2IF3ARB          0xfff7df48     0x4  Data  Gb  uc_can.o [1]
_A_DCAN2IF3DATA         0xfff7df50     0x4  Data  Gb  uc_can.o [1]
_A_DCAN2IF3DATB         0xfff7df54     0x4  Data  Gb  uc_can.o [1]
_A_DCAN2IF3MCTL         0xfff7df4c     0x4  Data  Gb  uc_can.o [1]
_A_DCAN2IF3MSK          0xfff7df44     0x4  Data  Gb  uc_can.o [1]
_A_DCAN2IF3OBS          0xfff7df40     0x4  Data  Gb  uc_can.o [1]
_A_DCAN2IF3UPD12        0xfff7df60     0x4  Data  Gb  uc_can.o [1]
_A_DCAN2IF3UPD34        0xfff7df64     0x4  Data  Gb  uc_can.o [1]
_A_DCAN2IF3UPD56        0xfff7df68     0x4  Data  Gb  uc_can.o [1]
_A_DCAN2IF3UPD78        0xfff7df6c     0x4  Data  Gb  uc_can.o [1]
_A_DCAN2INT             0xfff7de10     0x4  Data  Gb  uc_can.o [1]
_A_DCAN2INTMUX12        0xfff7ded8     0x4  Data  Gb  uc_can.o [1]
_A_DCAN2INTMUX34        0xfff7dedc     0x4  Data  Gb  uc_can.o [1]
_A_DCAN2INTMUX56        0xfff7dee0     0x4  Data  Gb  uc_can.o [1]
_A_DCAN2INTMUX78        0xfff7dee4     0x4  Data  Gb  uc_can.o [1]
_A_DCAN2INTPND12        0xfff7deb0     0x4  Data  Gb  uc_can.o [1]
_A_DCAN2INTPND34        0xfff7deb4     0x4  Data  Gb  uc_can.o [1]
_A_DCAN2INTPND56        0xfff7deb8     0x4  Data  Gb  uc_can.o [1]
_A_DCAN2INTPND78        0xfff7debc     0x4  Data  Gb  uc_can.o [1]
_A_DCAN2INTPNDX         0xfff7deac     0x4  Data  Gb  uc_can.o [1]
_A_DCAN2MSGVAL12        0xfff7dec4     0x4  Data  Gb  uc_can.o [1]
_A_DCAN2MSGVAL34        0xfff7dec8     0x4  Data  Gb  uc_can.o [1]
_A_DCAN2MSGVAL56        0xfff7decc     0x4  Data  Gb  uc_can.o [1]
_A_DCAN2MSGVAL78        0xfff7ded0     0x4  Data  Gb  uc_can.o [1]
_A_DCAN2MSGVALX         0xfff7dec0     0x4  Data  Gb  uc_can.o [1]
_A_DCAN2NWDAT12         0xfff7de9c     0x4  Data  Gb  uc_can.o [1]
_A_DCAN2NWDAT34         0xfff7dea0     0x4  Data  Gb  uc_can.o [1]
_A_DCAN2NWDAT56         0xfff7dea4     0x4  Data  Gb  uc_can.o [1]
_A_DCAN2NWDAT78         0xfff7dea8     0x4  Data  Gb  uc_can.o [1]
_A_DCAN2NWDATX          0xfff7de98     0x4  Data  Gb  uc_can.o [1]
_A_DCAN2PERR            0xfff7de1c     0x4  Data  Gb  uc_can.o [1]
_A_DCAN2RIOC            0xfff7dfe4     0x4  Data  Gb  uc_can.o [1]
_A_DCAN2TEST            0xfff7de14     0x4  Data  Gb  uc_can.o [1]
_A_DCAN2TIOC            0xfff7dfe0     0x4  Data  Gb  uc_can.o [1]
_A_DCAN2TXRQ12          0xfff7de88     0x4  Data  Gb  uc_can.o [1]
_A_DCAN2TXRQ34          0xfff7de8c     0x4  Data  Gb  uc_can.o [1]
_A_DCAN2TXRQ56          0xfff7de90     0x4  Data  Gb  uc_can.o [1]
_A_DCAN2TXRQ78          0xfff7de94     0x4  Data  Gb  uc_can.o [1]
_A_DCAN2TXRQX           0xfff7de84     0x4  Data  Gb  uc_can.o [1]
_A_DCAN3BTR             0xfff7e00c     0x4  Data  Gb  uc_can.o [1]
_A_DCAN3CTL             0xfff7e000     0x4  Data  Gb  uc_can.o [1]
_A_DCAN3ERRC            0xfff7e008     0x4  Data  Gb  uc_can.o [1]
_A_DCAN3ES              0xfff7e004     0x4  Data  Gb  uc_can.o [1]
_A_DCAN3IF1ARB          0xfff7e108     0x4  Data  Gb  uc_can.o [1]
_A_DCAN3IF1CMD          0xfff7e100     0x4  Data  Gb  uc_can.o [1]
_A_DCAN3IF1DATA         0xfff7e110     0x4  Data  Gb  uc_can.o [1]
_A_DCAN3IF1DATB         0xfff7e114     0x4  Data  Gb  uc_can.o [1]
_A_DCAN3IF1MCTL         0xfff7e10c     0x4  Data  Gb  uc_can.o [1]
_A_DCAN3IF1MSK          0xfff7e104     0x4  Data  Gb  uc_can.o [1]
_A_DCAN3IF2ARB          0xfff7e128     0x4  Data  Gb  uc_can.o [1]
_A_DCAN3IF2CMD          0xfff7e120     0x4  Data  Gb  uc_can.o [1]
_A_DCAN3IF2DATA         0xfff7e130     0x4  Data  Gb  uc_can.o [1]
_A_DCAN3IF2DATB         0xfff7e134     0x4  Data  Gb  uc_can.o [1]
_A_DCAN3IF2MCTL         0xfff7e12c     0x4  Data  Gb  uc_can.o [1]
_A_DCAN3IF2MSK          0xfff7e124     0x4  Data  Gb  uc_can.o [1]
_A_DCAN3IF3ARB          0xfff7e148     0x4  Data  Gb  uc_can.o [1]
_A_DCAN3IF3DATA         0xfff7e150     0x4  Data  Gb  uc_can.o [1]
_A_DCAN3IF3DATB         0xfff7e154     0x4  Data  Gb  uc_can.o [1]
_A_DCAN3IF3MCTL         0xfff7e14c     0x4  Data  Gb  uc_can.o [1]
_A_DCAN3IF3MSK          0xfff7e144     0x4  Data  Gb  uc_can.o [1]
_A_DCAN3IF3OBS          0xfff7e140     0x4  Data  Gb  uc_can.o [1]
_A_DCAN3IF3UPD12        0xfff7e160     0x4  Data  Gb  uc_can.o [1]
_A_DCAN3IF3UPD34        0xfff7e164     0x4  Data  Gb  uc_can.o [1]
_A_DCAN3IF3UPD56        0xfff7e168     0x4  Data  Gb  uc_can.o [1]
_A_DCAN3IF3UPD78        0xfff7e16c     0x4  Data  Gb  uc_can.o [1]
_A_DCAN3INT             0xfff7e010     0x4  Data  Gb  uc_can.o [1]
_A_DCAN3INTMUX12        0xfff7e0d8     0x4  Data  Gb  uc_can.o [1]
_A_DCAN3INTMUX34        0xfff7e0dc     0x4  Data  Gb  uc_can.o [1]
_A_DCAN3INTMUX56        0xfff7e0e0     0x4  Data  Gb  uc_can.o [1]
_A_DCAN3INTMUX78        0xfff7e0e4     0x4  Data  Gb  uc_can.o [1]
_A_DCAN3INTPND12        0xfff7e0b0     0x4  Data  Gb  uc_can.o [1]
_A_DCAN3INTPND34        0xfff7e0b4     0x4  Data  Gb  uc_can.o [1]
_A_DCAN3INTPND56        0xfff7e0b8     0x4  Data  Gb  uc_can.o [1]
_A_DCAN3INTPND78        0xfff7e0bc     0x4  Data  Gb  uc_can.o [1]
_A_DCAN3INTPNDX         0xfff7e0ac     0x4  Data  Gb  uc_can.o [1]
_A_DCAN3MSGVAL12        0xfff7e0c4     0x4  Data  Gb  uc_can.o [1]
_A_DCAN3MSGVAL34        0xfff7e0c8     0x4  Data  Gb  uc_can.o [1]
_A_DCAN3MSGVAL56        0xfff7e0cc     0x4  Data  Gb  uc_can.o [1]
_A_DCAN3MSGVAL78        0xfff7e0d0     0x4  Data  Gb  uc_can.o [1]
_A_DCAN3MSGVALX         0xfff7e0c0     0x4  Data  Gb  uc_can.o [1]
_A_DCAN3NWDAT12         0xfff7e09c     0x4  Data  Gb  uc_can.o [1]
_A_DCAN3NWDAT34         0xfff7e0a0     0x4  Data  Gb  uc_can.o [1]
_A_DCAN3NWDAT56         0xfff7e0a4     0x4  Data  Gb  uc_can.o [1]
_A_DCAN3NWDAT78         0xfff7e0a8     0x4  Data  Gb  uc_can.o [1]
_A_DCAN3NWDATX          0xfff7e098     0x4  Data  Gb  uc_can.o [1]
_A_DCAN3PERR            0xfff7e01c     0x4  Data  Gb  uc_can.o [1]
_A_DCAN3RIOC            0xfff7e1e4     0x4  Data  Gb  uc_can.o [1]
_A_DCAN3TEST            0xfff7e014     0x4  Data  Gb  uc_can.o [1]
_A_DCAN3TIOC            0xfff7e1e0     0x4  Data  Gb  uc_can.o [1]
_A_DCAN3TXRQ12          0xfff7e088     0x4  Data  Gb  uc_can.o [1]
_A_DCAN3TXRQ34          0xfff7e08c     0x4  Data  Gb  uc_can.o [1]
_A_DCAN3TXRQ56          0xfff7e090     0x4  Data  Gb  uc_can.o [1]
_A_DCAN3TXRQ78          0xfff7e094     0x4  Data  Gb  uc_can.o [1]
_A_DCAN3TXRQX           0xfff7e084     0x4  Data  Gb  uc_can.o [1]
_A_FBFALLBACK           0xfff87040     0x4  Data  Gb  uc_eeprom.o [1]
_A_FIRQPR0              0xfffffe10     0x4  Data  Gb  uc_system.o [1]
_A_FIRQPR1              0xfffffe14     0x4  Data  Gb  uc_system.o [1]
_A_FRDCNTL              0xfff87000     0x4  Data  Gb  low_level_init.o [1]
_A_FSM_WR_ENA           0xfff87288     0x4  Data  Gb  uc_eeprom.o [1]
_A_GHVSRC               0xffffff48     0x4  Data  Gb  low_level_init.o [1]
_A_GIOCLRA              0xfff7bc44     0x4  Data  Gb  uc_dio.o [1]
_A_GIOCLRB              0xfff7bc64     0x4  Data  Gb  uc_dio.o [1]
_A_GIODINA              0xfff7bc38     0x4  Data  Gb  uc_dio.o [1]
_A_GIODINB              0xfff7bc58     0x4  Data  Gb  uc_dio.o [1]
_A_GIODIRA              0xfff7bc34     0x4  Data  Gb  uc_dio.o [1]
_A_GIODIRB              0xfff7bc54     0x4  Data  Gb  uc_dio.o [1]
_A_GIODOUTA             0xfff7bc3c     0x4  Data  Gb  uc_dio.o [1]
_A_GIODOUTB             0xfff7bc5c     0x4  Data  Gb  uc_dio.o [1]
_A_GIOENASET            0xfff7bc10     0x4  Data  Gb  uc_dio.o [1]
_A_GIOGCR0              0xfff7bc00     0x4  Data  Gb  uc_dio.o [1]
_A_GIOINTDET            0xfff7bc08     0x4  Data  Gb  uc_dio.o [1]
_A_GIOLVLCLR            0xfff7bc1c     0x4  Data  Gb  uc_dio.o [1]
_A_GIOLVLSET            0xfff7bc18     0x4  Data  Gb  uc_dio.o [1]
_A_GIOOFF1              0xfff7bc24     0x4  Data  Gb  uc_dio.o [1]
_A_GIOOFF2              0xfff7bc28     0x4  Data  Gb  uc_dio.o [1]
_A_GIOPDRA              0xfff7bc48     0x4  Data  Gb  uc_dio.o [1]
_A_GIOPDRB              0xfff7bc68     0x4  Data  Gb  uc_dio.o [1]
_A_GIOPOL               0xfff7bc0c     0x4  Data  Gb  uc_dio.o [1]
_A_GIOPSLA              0xfff7bc50     0x4  Data  Gb  uc_dio.o [1]
_A_GIOPSLB              0xfff7bc70     0x4  Data  Gb  uc_dio.o [1]
_A_GIOPULDISA           0xfff7bc4c     0x4  Data  Gb  uc_dio.o [1]
_A_GIOPULDISB           0xfff7bc6c     0x4  Data  Gb  uc_dio.o [1]
_A_GIOSETA              0xfff7bc40     0x4  Data  Gb  uc_dio.o [1]
_A_GIOSETB              0xfff7bc60     0x4  Data  Gb  uc_dio.o [1]
_A_HET1DCLR             0xfff7b85c     0x4  Data  Gb  uc_dio.o [1]
_A_HET1DIN              0xfff7b850     0x4  Data  Gb  uc_pwm.o [1]
_A_HET1DIR              0xfff7b84c     0x4  Data  Gb  uc_pwm.o [1]
_A_HET1DOUT             0xfff7b854     0x4  Data  Gb  uc_dio.o [1]
_A_HET1DSET             0xfff7b858     0x4  Data  Gb  uc_dio.o [1]
_A_HET1GCR              0xfff7b800     0x4  Data  Gb  uc_pwm.o [1]
_A_HET1PDR              0xfff7b860     0x4  Data  Gb  uc_dio.o [1]
_A_HET1PFR              0xfff7b804     0x4  Data  Gb  uc_pwm.o [1]
_A_HET1PSL              0xfff7b868     0x4  Data  Gb  uc_pwm.o [1]
_A_HET1PULDIS           0xfff7b864     0x4  Data  Gb  uc_pwm.o [1]
_A_HET2DCLR             0xfff7b95c     0x4  Data  Gb  uc_dio.o [1]
_A_HET2DIN              0xfff7b950     0x4  Data  Gb  uc_dio.o [1]
_A_HET2DIR              0xfff7b94c     0x4  Data  Gb  uc_dio.o [1]
_A_HET2DOUT             0xfff7b954     0x4  Data  Gb  uc_dio.o [1]
_A_HET2DSET             0xfff7b958     0x4  Data  Gb  uc_dio.o [1]
_A_HET2PDR              0xfff7b960     0x4  Data  Gb  uc_dio.o [1]
_A_HET2PSL              0xfff7b968     0x4  Data  Gb  uc_dio.o [1]
_A_HET2PULDIS           0xfff7b964     0x4  Data  Gb  uc_dio.o [1]
_A_IO1DFTCTRL           0xfff7e490     0x4  Data  Gb  uc_uart.o [1]
_A_IO2DFTCTRL           0xfff7e590     0x4  Data  Gb  uc_uart.o [1]
_A_IOMM_PINMMR07        0xffffeb2c     0x4  Data  Gb  uc_uart _cfg.o [1]
_A_IOMM_PINMMR08        0xffffeb30     0x4  Data  Gb  uc_uart _cfg.o [1]
_A_IOMM_PINMMR24        0xffffeb70     0x4  Data  Gb  uc_pwm.o [1]
_A_LPOMONCTL            0xffffff88     0x4  Data  Gb  low_level_init.o [1]
_A_MIBSPI1BUF           0xfff7f440     0x4  Data  Gb  uc_spi.o [1]
_A_MIBSPI1DAT0          0xfff7f438     0x4  Data  Gb  uc_spi.o [1]
_A_MIBSPI1DAT1          0xfff7f43c     0x4  Data  Gb  uc_spi.o [1]
_A_MIBSPI1DEF           0xfff7f44c     0x4  Data  Gb  uc_spi.o [1]
_A_MIBSPI1DELAY         0xfff7f448     0x4  Data  Gb  uc_spi.o [1]
_A_MIBSPI1DMA0COUNT     0xfff7f4f8     0x4  Data  Gb  uc_spi.o [1]
_A_MIBSPI1DMA0CTRL      0xfff7f4d8     0x4  Data  Gb  uc_spi.o [1]
_A_MIBSPI1DMA1COUNT     0xfff7f4fc     0x4  Data  Gb  uc_spi.o [1]
_A_MIBSPI1DMA1CTRL      0xfff7f4dc     0x4  Data  Gb  uc_spi.o [1]
_A_MIBSPI1DMA2COUNT     0xfff7f500     0x4  Data  Gb  uc_spi.o [1]
_A_MIBSPI1DMA2CTRL      0xfff7f4e0     0x4  Data  Gb  uc_spi.o [1]
_A_MIBSPI1DMA3COUNT     0xfff7f504     0x4  Data  Gb  uc_spi.o [1]
_A_MIBSPI1DMA3CTRL      0xfff7f4e4     0x4  Data  Gb  uc_spi.o [1]
_A_MIBSPI1DMA4COUNT     0xfff7f508     0x4  Data  Gb  uc_spi.o [1]
_A_MIBSPI1DMA4CTRL      0xfff7f4e8     0x4  Data  Gb  uc_spi.o [1]
_A_MIBSPI1DMA5COUNT     0xfff7f50c     0x4  Data  Gb  uc_spi.o [1]
_A_MIBSPI1DMA5CTRL      0xfff7f4ec     0x4  Data  Gb  uc_spi.o [1]
_A_MIBSPI1DMA6COUNT     0xfff7f510     0x4  Data  Gb  uc_spi.o [1]
_A_MIBSPI1DMA6CTRL      0xfff7f4f0     0x4  Data  Gb  uc_spi.o [1]
_A_MIBSPI1DMA7COUNT     0xfff7f514     0x4  Data  Gb  uc_spi.o [1]
_A_MIBSPI1DMA7CTRL      0xfff7f4f4     0x4  Data  Gb  uc_spi.o [1]
_A_MIBSPI1DMACNTLEN     0xfff7f518     0x4  Data  Gb  uc_spi.o [1]
_A_MIBSPI1EMU           0xfff7f444     0x4  Data  Gb  uc_spi.o [1]
_A_MIBSPI1EXTENDED_PRESCALE1
                        0xfff7f538     0x4  Data  Gb  uc_spi.o [1]
_A_MIBSPI1EXTENDED_PRESCALE2
                        0xfff7f53c     0x4  Data  Gb  uc_spi.o [1]
_A_MIBSPI1FLG           0xfff7f410     0x4  Data  Gb  uc_spi.o [1]
_A_MIBSPI1FMT0          0xfff7f450     0x4  Data  Gb  uc_spi.o [1]
_A_MIBSPI1FMT1          0xfff7f454     0x4  Data  Gb  uc_spi.o [1]
_A_MIBSPI1FMT2          0xfff7f458     0x4  Data  Gb  uc_spi.o [1]
_A_MIBSPI1FMT3          0xfff7f45c     0x4  Data  Gb  uc_spi.o [1]
_A_MIBSPI1GCR0          0xfff7f400     0x4  Data  Gb  uc_spi.o [1]
_A_MIBSPI1GCR1          0xfff7f404     0x4  Data  Gb  uc_spi.o [1]
_A_MIBSPI1INT0          0xfff7f408     0x4  Data  Gb  uc_spi.o [1]
_A_MIBSPI1INTVECT0      0xfff7f460     0x4  Data  Gb  uc_spi.o [1]
_A_MIBSPI1INTVECT1      0xfff7f464     0x4  Data  Gb  uc_spi.o [1]
_A_MIBSPI1IOLPBKTSTCR   0xfff7f534     0x4  Data  Gb  uc_spi.o [1]
_A_MIBSPI1LTGPEND       0xfff7f494     0x4  Data  Gb  uc_spi.o [1]
_A_MIBSPI1LVL           0xfff7f40c     0x4  Data  Gb  uc_spi.o [1]
_A_MIBSPI1MIBSPIE       0xfff7f470     0x4  Data  Gb  uc_spi.o [1]
_A_MIBSPI1PC0           0xfff7f414     0x4  Data  Gb  uc_spi.o [1]
_A_MIBSPI1PC1           0xfff7f418     0x4  Data  Gb  uc_spi.o [1]
_A_MIBSPI1PC2           0xfff7f41c     0x4  Data  Gb  uc_spi.o [1]
_A_MIBSPI1PC3           0xfff7f420     0x4  Data  Gb  uc_spi.o [1]
_A_MIBSPI1PC4           0xfff7f424     0x4  Data  Gb  uc_spi.o [1]
_A_MIBSPI1PC5           0xfff7f428     0x4  Data  Gb  uc_spi.o [1]
_A_MIBSPI1PC6           0xfff7f42c     0x4  Data  Gb  uc_spi.o [1]
_A_MIBSPI1PC7           0xfff7f430     0x4  Data  Gb  uc_spi.o [1]
_A_MIBSPI1PC8           0xfff7f434     0x4  Data  Gb  uc_spi.o [1]
_A_MIBSPI1RXOVRN_BUF_ADDR
                        0xfff7f530     0x4  Data  Gb  uc_spi.o [1]
_A_MIBSPI1TG0CTRL       0xfff7f498     0x4  Data  Gb  uc_spi.o [1]
_A_MIBSPI1TG10CTRL      0xfff7f4c0     0x4  Data  Gb  uc_spi.o [1]
_A_MIBSPI1TG11CTRL      0xfff7f4c4     0x4  Data  Gb  uc_spi.o [1]
_A_MIBSPI1TG12CTRL      0xfff7f4c8     0x4  Data  Gb  uc_spi.o [1]
_A_MIBSPI1TG13CTRL      0xfff7f4cc     0x4  Data  Gb  uc_spi.o [1]
_A_MIBSPI1TG14CTRL      0xfff7f4d0     0x4  Data  Gb  uc_spi.o [1]
_A_MIBSPI1TG15CTRL      0xfff7f4d4     0x4  Data  Gb  uc_spi.o [1]
_A_MIBSPI1TG1CTRL       0xfff7f49c     0x4  Data  Gb  uc_spi.o [1]
_A_MIBSPI1TG2CTRL       0xfff7f4a0     0x4  Data  Gb  uc_spi.o [1]
_A_MIBSPI1TG3CTRL       0xfff7f4a4     0x4  Data  Gb  uc_spi.o [1]
_A_MIBSPI1TG4CTRL       0xfff7f4a8     0x4  Data  Gb  uc_spi.o [1]
_A_MIBSPI1TG5CTRL       0xfff7f4ac     0x4  Data  Gb  uc_spi.o [1]
_A_MIBSPI1TG6CTRL       0xfff7f4b0     0x4  Data  Gb  uc_spi.o [1]
_A_MIBSPI1TG7CTRL       0xfff7f4b4     0x4  Data  Gb  uc_spi.o [1]
_A_MIBSPI1TG8CTRL       0xfff7f4b8     0x4  Data  Gb  uc_spi.o [1]
_A_MIBSPI1TG9CTRL       0xfff7f4bc     0x4  Data  Gb  uc_spi.o [1]
_A_MIBSPI1TGINTFLG      0xfff7f484     0x4  Data  Gb  uc_spi.o [1]
_A_MIBSPI1TGITENCR      0xfff7f478     0x4  Data  Gb  uc_spi.o [1]
_A_MIBSPI1TGITENST      0xfff7f474     0x4  Data  Gb  uc_spi.o [1]
_A_MIBSPI1TGITLVCR      0xfff7f480     0x4  Data  Gb  uc_spi.o [1]
_A_MIBSPI1TGITLVST      0xfff7f47c     0x4  Data  Gb  uc_spi.o [1]
_A_MIBSPI1TICKCNT       0xfff7f490     0x4  Data  Gb  uc_spi.o [1]
_A_MIBSPI1UERRADDR0     0xfff7f52c     0x4  Data  Gb  uc_spi.o [1]
_A_MIBSPI1UERRADDR1     0xfff7f528     0x4  Data  Gb  uc_spi.o [1]
_A_MIBSPI1UERRCTRL      0xfff7f520     0x4  Data  Gb  uc_spi.o [1]
_A_MIBSPI1UERRSTAT      0xfff7f524     0x4  Data  Gb  uc_spi.o [1]
_A_MIBSPI3BUF           0xfff7f840     0x4  Data  Gb  uc_spi.o [1]
_A_MIBSPI3DAT0          0xfff7f838     0x4  Data  Gb  uc_spi.o [1]
_A_MIBSPI3DAT1          0xfff7f83c     0x4  Data  Gb  uc_spi.o [1]
_A_MIBSPI3DEF           0xfff7f84c     0x4  Data  Gb  uc_spi.o [1]
_A_MIBSPI3DELAY         0xfff7f848     0x4  Data  Gb  uc_spi.o [1]
_A_MIBSPI3DMA0COUNT     0xfff7f8f8     0x4  Data  Gb  uc_spi.o [1]
_A_MIBSPI3DMA0CTRL      0xfff7f8d8     0x4  Data  Gb  uc_spi.o [1]
_A_MIBSPI3DMA1COUNT     0xfff7f8fc     0x4  Data  Gb  uc_spi.o [1]
_A_MIBSPI3DMA1CTRL      0xfff7f8dc     0x4  Data  Gb  uc_spi.o [1]
_A_MIBSPI3DMA2COUNT     0xfff7f900     0x4  Data  Gb  uc_spi.o [1]
_A_MIBSPI3DMA2CTRL      0xfff7f8e0     0x4  Data  Gb  uc_spi.o [1]
_A_MIBSPI3DMA3COUNT     0xfff7f904     0x4  Data  Gb  uc_spi.o [1]
_A_MIBSPI3DMA3CTRL      0xfff7f8e4     0x4  Data  Gb  uc_spi.o [1]
_A_MIBSPI3DMA4COUNT     0xfff7f908     0x4  Data  Gb  uc_spi.o [1]
_A_MIBSPI3DMA4CTRL      0xfff7f8e8     0x4  Data  Gb  uc_spi.o [1]
_A_MIBSPI3DMA5COUNT     0xfff7f90c     0x4  Data  Gb  uc_spi.o [1]
_A_MIBSPI3DMA5CTRL      0xfff7f8ec     0x4  Data  Gb  uc_spi.o [1]
_A_MIBSPI3DMA6COUNT     0xfff7f910     0x4  Data  Gb  uc_spi.o [1]
_A_MIBSPI3DMA6CTRL      0xfff7f8f0     0x4  Data  Gb  uc_spi.o [1]
_A_MIBSPI3DMA7COUNT     0xfff7f914     0x4  Data  Gb  uc_spi.o [1]
_A_MIBSPI3DMA7CTRL      0xfff7f8f4     0x4  Data  Gb  uc_spi.o [1]
_A_MIBSPI3DMACNTLEN     0xfff7f918     0x4  Data  Gb  uc_spi.o [1]
_A_MIBSPI3EMU           0xfff7f844     0x4  Data  Gb  uc_spi.o [1]
_A_MIBSPI3EXTENDED_PRESCALE1
                        0xfff7f938     0x4  Data  Gb  uc_spi.o [1]
_A_MIBSPI3EXTENDED_PRESCALE2
                        0xfff7f93c     0x4  Data  Gb  uc_spi.o [1]
_A_MIBSPI3FLG           0xfff7f810     0x4  Data  Gb  uc_spi.o [1]
_A_MIBSPI3FMT0          0xfff7f850     0x4  Data  Gb  uc_spi.o [1]
_A_MIBSPI3FMT1          0xfff7f854     0x4  Data  Gb  uc_spi.o [1]
_A_MIBSPI3FMT2          0xfff7f858     0x4  Data  Gb  uc_spi.o [1]
_A_MIBSPI3FMT3          0xfff7f85c     0x4  Data  Gb  uc_spi.o [1]
_A_MIBSPI3GCR0          0xfff7f800     0x4  Data  Gb  uc_spi.o [1]
_A_MIBSPI3GCR1          0xfff7f804     0x4  Data  Gb  uc_spi.o [1]
_A_MIBSPI3INT0          0xfff7f808     0x4  Data  Gb  uc_spi.o [1]
_A_MIBSPI3INTVECT0      0xfff7f860     0x4  Data  Gb  uc_spi.o [1]
_A_MIBSPI3INTVECT1      0xfff7f864     0x4  Data  Gb  uc_spi.o [1]
_A_MIBSPI3IOLPBKTSTCR   0xfff7f934     0x4  Data  Gb  uc_spi.o [1]
_A_MIBSPI3LTGPEND       0xfff7f894     0x4  Data  Gb  uc_spi.o [1]
_A_MIBSPI3LVL           0xfff7f80c     0x4  Data  Gb  uc_spi.o [1]
_A_MIBSPI3MIBSPIE       0xfff7f870     0x4  Data  Gb  uc_spi.o [1]
_A_MIBSPI3PC0           0xfff7f814     0x4  Data  Gb  uc_spi.o [1]
_A_MIBSPI3PC1           0xfff7f818     0x4  Data  Gb  uc_spi.o [1]
_A_MIBSPI3PC2           0xfff7f81c     0x4  Data  Gb  uc_spi.o [1]
_A_MIBSPI3PC3           0xfff7f820     0x4  Data  Gb  uc_spi.o [1]
_A_MIBSPI3PC4           0xfff7f824     0x4  Data  Gb  uc_spi.o [1]
_A_MIBSPI3PC5           0xfff7f828     0x4  Data  Gb  uc_spi.o [1]
_A_MIBSPI3PC6           0xfff7f82c     0x4  Data  Gb  uc_spi.o [1]
_A_MIBSPI3PC7           0xfff7f830     0x4  Data  Gb  uc_spi.o [1]
_A_MIBSPI3PC8           0xfff7f834     0x4  Data  Gb  uc_spi.o [1]
_A_MIBSPI3RXOVRN_BUF_ADDR
                        0xfff7f930     0x4  Data  Gb  uc_spi.o [1]
_A_MIBSPI3TG0CTRL       0xfff7f898     0x4  Data  Gb  uc_spi.o [1]
_A_MIBSPI3TG10CTRL      0xfff7f8c0     0x4  Data  Gb  uc_spi.o [1]
_A_MIBSPI3TG11CTRL      0xfff7f8c4     0x4  Data  Gb  uc_spi.o [1]
_A_MIBSPI3TG12CTRL      0xfff7f8c8     0x4  Data  Gb  uc_spi.o [1]
_A_MIBSPI3TG13CTRL      0xfff7f8cc     0x4  Data  Gb  uc_spi.o [1]
_A_MIBSPI3TG14CTRL      0xfff7f8d0     0x4  Data  Gb  uc_spi.o [1]
_A_MIBSPI3TG15CTRL      0xfff7f8d4     0x4  Data  Gb  uc_spi.o [1]
_A_MIBSPI3TG1CTRL       0xfff7f89c     0x4  Data  Gb  uc_spi.o [1]
_A_MIBSPI3TG2CTRL       0xfff7f8a0     0x4  Data  Gb  uc_spi.o [1]
_A_MIBSPI3TG3CTRL       0xfff7f8a4     0x4  Data  Gb  uc_spi.o [1]
_A_MIBSPI3TG4CTRL       0xfff7f8a8     0x4  Data  Gb  uc_spi.o [1]
_A_MIBSPI3TG5CTRL       0xfff7f8ac     0x4  Data  Gb  uc_spi.o [1]
_A_MIBSPI3TG6CTRL       0xfff7f8b0     0x4  Data  Gb  uc_spi.o [1]
_A_MIBSPI3TG7CTRL       0xfff7f8b4     0x4  Data  Gb  uc_spi.o [1]
_A_MIBSPI3TG8CTRL       0xfff7f8b8     0x4  Data  Gb  uc_spi.o [1]
_A_MIBSPI3TG9CTRL       0xfff7f8bc     0x4  Data  Gb  uc_spi.o [1]
_A_MIBSPI3TGINTFLG      0xfff7f884     0x4  Data  Gb  uc_spi.o [1]
_A_MIBSPI3TGITENCR      0xfff7f878     0x4  Data  Gb  uc_spi.o [1]
_A_MIBSPI3TGITENST      0xfff7f874     0x4  Data  Gb  uc_spi.o [1]
_A_MIBSPI3TGITLVCR      0xfff7f880     0x4  Data  Gb  uc_spi.o [1]
_A_MIBSPI3TGITLVST      0xfff7f87c     0x4  Data  Gb  uc_spi.o [1]
_A_MIBSPI3TICKCNT       0xfff7f890     0x4  Data  Gb  uc_spi.o [1]
_A_MIBSPI3UERRADDR0     0xfff7f92c     0x4  Data  Gb  uc_spi.o [1]
_A_MIBSPI3UERRADDR1     0xfff7f928     0x4  Data  Gb  uc_spi.o [1]
_A_MIBSPI3UERRCTRL      0xfff7f920     0x4  Data  Gb  uc_spi.o [1]
_A_MIBSPI3UERRSTAT      0xfff7f924     0x4  Data  Gb  uc_spi.o [1]
_A_MIBSPI5GCR0          0xfff7fc00     0x4  Data  Gb  uc_dio.o [1]
_A_MIBSPI5PC1           0xfff7fc18     0x4  Data  Gb  uc_dio.o [1]
_A_MIBSPI5PC2           0xfff7fc1c     0x4  Data  Gb  uc_dio.o [1]
_A_MIBSPI5PC3           0xfff7fc20     0x4  Data  Gb  uc_dio.o [1]
_A_MIBSPI5PC4           0xfff7fc24     0x4  Data  Gb  uc_dio.o [1]
_A_MIBSPI5PC5           0xfff7fc28     0x4  Data  Gb  uc_dio.o [1]
_A_MIBSPI5PC6           0xfff7fc2c     0x4  Data  Gb  uc_dio.o [1]
_A_MIBSPI5PC7           0xfff7fc30     0x4  Data  Gb  uc_dio.o [1]
_A_MIBSPI5PC8           0xfff7fc34     0x4  Data  Gb  uc_dio.o [1]
_A_MINITGCR             0xffffff5c     0x4  Data  Gb  uc_system.o [1]
_A_PLLCTL1              0xffffff70     0x4  Data  Gb  low_level_init.o [1]
_A_PLLCTL2              0xffffff74     0x4  Data  Gb  low_level_init.o [1]
_A_PSPWRDWNCLR0         0xffffe0a0     0x4  Data  Gb  low_level_init.o [1]
_A_PSPWRDWNCLR1         0xffffe0a4     0x4  Data  Gb  low_level_init.o [1]
_A_PSPWRDWNCLR2         0xffffe0a8     0x4  Data  Gb  low_level_init.o [1]
_A_PSPWRDWNCLR3         0xffffe0ac     0x4  Data  Gb  low_level_init.o [1]
_A_RCLKSRC              0xffffff50     0x4  Data  Gb  uc_timer.o [1]
_A_REQENACLR0           0xfffffe40     0x4  Data  Gb  uc_system.o [1]
_A_REQENACLR1           0xfffffe44     0x4  Data  Gb  uc_system.o [1]
_A_REQENASET0           0xfffffe30     0x4  Data  Gb  uc_system.o [1]
_A_REQENASET1           0xfffffe34     0x4  Data  Gb  uc_system.o [1]
_A_REQENASET2           0xfffffe38     0x4  Data  Gb  uc_system.o [1]
_A_RTIGCTRL             0xfffffc00     0x4  Data  Gb  uc_timer.o [1]
_A_RTIINTFLAG           0xfffffc88     0x4  Data  Gb  uc_timer.o [1]
_A_RTISETINTENA         0xfffffc80     0x4  Data  Gb  uc_timer.o [1]
_A_SCI1BRS              0xfff7e42c     0x4  Data  Gb  uc_uart.o [1]
_A_SCI1CLEARINT         0xfff7e410     0x4  Data  Gb  uc_uart.o [1]
_A_SCI1CLEARINTLVL      0xfff7e418     0x4  Data  Gb  uc_uart.o [1]
_A_SCI1ED               0xfff7e430     0x4  Data  Gb  uc_uart.o [1]
_A_SCI1FLR              0xfff7e41c     0x4  Data  Gb  uc_uart.o [1]
_A_SCI1FORMAT           0xfff7e428     0x4  Data  Gb  uc_uart.o [1]
_A_SCI1GCR0             0xfff7e400     0x4  Data  Gb  uc_uart.o [1]
_A_SCI1GCR1             0xfff7e404     0x4  Data  Gb  uc_uart.o [1]
_A_SCI1INTVECT0         0xfff7e420     0x4  Data  Gb  uc_uart.o [1]
_A_SCI1INTVECT1         0xfff7e424     0x4  Data  Gb  uc_uart.o [1]
_A_SCI1PIO0             0xfff7e43c     0x4  Data  Gb  uc_uart.o [1]
_A_SCI1PIO1             0xfff7e440     0x4  Data  Gb  uc_uart.o [1]
_A_SCI1PIO2             0xfff7e444     0x4  Data  Gb  uc_uart.o [1]
_A_SCI1PIO3             0xfff7e448     0x4  Data  Gb  uc_uart.o [1]
_A_SCI1PIO4             0xfff7e44c     0x4  Data  Gb  uc_uart.o [1]
_A_SCI1PIO5             0xfff7e450     0x4  Data  Gb  uc_uart.o [1]
_A_SCI1PIO6             0xfff7e454     0x4  Data  Gb  uc_uart.o [1]
_A_SCI1PIO7             0xfff7e458     0x4  Data  Gb  uc_uart.o [1]
_A_SCI1PIO8             0xfff7e45c     0x4  Data  Gb  uc_uart.o [1]
_A_SCI1RD               0xfff7e434     0x4  Data  Gb  uc_uart.o [1]
_A_SCI1SETINT           0xfff7e40c     0x4  Data  Gb  uc_uart.o [1]
_A_SCI1SETINTLVL        0xfff7e414     0x4  Data  Gb  uc_uart.o [1]
_A_SCI1TD               0xfff7e438     0x4  Data  Gb  uc_uart.o [1]
_A_SCI2BRS              0xfff7e52c     0x4  Data  Gb  uc_uart.o [1]
_A_SCI2CLEARINT         0xfff7e510     0x4  Data  Gb  uc_uart.o [1]
_A_SCI2CLEARINTLVL      0xfff7e518     0x4  Data  Gb  uc_uart.o [1]
_A_SCI2ED               0xfff7e530     0x4  Data  Gb  uc_uart.o [1]
_A_SCI2FLR              0xfff7e51c     0x4  Data  Gb  uc_uart.o [1]
_A_SCI2FORMAT           0xfff7e528     0x4  Data  Gb  uc_uart.o [1]
_A_SCI2GCR0             0xfff7e500     0x4  Data  Gb  uc_uart.o [1]
_A_SCI2GCR1             0xfff7e504     0x4  Data  Gb  uc_uart.o [1]
_A_SCI2INTVECT0         0xfff7e520     0x4  Data  Gb  uc_uart.o [1]
_A_SCI2INTVECT1         0xfff7e524     0x4  Data  Gb  uc_uart.o [1]
_A_SCI2PIO0             0xfff7e53c     0x4  Data  Gb  uc_uart.o [1]
_A_SCI2PIO1             0xfff7e540     0x4  Data  Gb  uc_uart.o [1]
_A_SCI2PIO2             0xfff7e544     0x4  Data  Gb  uc_uart.o [1]
_A_SCI2PIO3             0xfff7e548     0x4  Data  Gb  uc_uart.o [1]
_A_SCI2PIO4             0xfff7e54c     0x4  Data  Gb  uc_uart.o [1]
_A_SCI2PIO5             0xfff7e550     0x4  Data  Gb  uc_uart.o [1]
_A_SCI2PIO6             0xfff7e554     0x4  Data  Gb  uc_uart.o [1]
_A_SCI2PIO7             0xfff7e558     0x4  Data  Gb  uc_uart.o [1]
_A_SCI2PIO8             0xfff7e55c     0x4  Data  Gb  uc_uart.o [1]
_A_SCI2RD               0xfff7e534     0x4  Data  Gb  uc_uart.o [1]
_A_SCI2SETINT           0xfff7e50c     0x4  Data  Gb  uc_uart.o [1]
_A_SCI2SETINTLVL        0xfff7e514     0x4  Data  Gb  uc_uart.o [1]
_A_SCI2TD               0xfff7e538     0x4  Data  Gb  uc_uart.o [1]
_A_SYSECR               0xffffffe0     0x4  Data  Gb  uc_system.o [1]
_A_VCLKASRC             0xffffff4c     0x4  Data  Gb  low_level_init.o [1]
_A_WAKEENACLR0          0xfffffe60     0x4  Data  Gb  uc_system.o [1]
_A_WAKEENACLR1          0xfffffe64     0x4  Data  Gb  uc_system.o [1]
_Fapi_EnableSectors     0x0010f9cd          Code  Gb  FlashStateMachine.EnableEepromSectors.obj [3]
_Fapi_checkWdService    0x0010fb19          Code  Gb  Read.WdService.obj [3]
_Fapi_enterMarginMode   0x0010fa61          Code  Gb  Read.Common.obj [3]
_Fapi_exitMarginMode    0x0010fb25          Code  Gb  Read.Common.obj [3]
_Fapi_issueFsmCommand   0x0010fa11          Code  Gb  FlashStateMachine.IssueFsmCommand.obj [3]
__aeabi_errno_addr      0x0010eb61     0xc  Code  Gb  errno.o [4]
__aeabi_memclr4         0x0010edc4          Code  Gb  ABImemclr4.o [6]
__aeabi_memcpy          0x0010e788          Code  Gb  ABImemcpy.o [6]
__aeabi_memcpy4         0x0010e7ac          Code  Gb  ABImemcpy.o [6]
__aeabi_memcpy8         0x0010e7ac          Code  Gb  ABImemcpy.o [6]
__aeabi_memset          0x00107acc          Code  Gb  ABImemset.o [6]
__cmain                 0x00117cc8          Code  Gb  cmain.o [6]
__exit                  0x00117d01    0x14  Code  Gb  exit.o [7]
__iar_Dint              0x0010ef8d    0x7a  Code  Gb  xdint.o [5]
__iar_Errno             0x08006c70     0x4  Data  Gb  errno.o [4]
__iar_Memset            0x00107acc          Code  Gb  ABImemset.o [6]
__iar_Memset4_word      0x0010f910          Code  Gb  ABImemset48.o [6]
__iar_Memset8_word      0x0010f910          Code  Gb  ABImemset48.o [6]
__iar_Memset_word       0x00107ad4          Code  Gb  ABImemset.o [6]
__iar_data_init3        0x0011779d    0x30  Code  Gb  data_init.o [6]
__iar_dlib_perthread_access
                        0x0010f26d     0x2  Code  Gb  xtls.o [4]
__iar_edom              0x0010e0d8          Code  Gb  iarEdom.o [6]
__iar_init_vfp          0x001182d8          Code  Gb  fpinit.o [5]
__iar_init_vfp_v6       0x001182c4          Code  Gb  fpinit.o [5]
__iar_lz77_init_single3
                        0x00115d09    0x78  Code  Gb  lz77_init_single.o [6]
__iar_program_start     0x00115858          Code  Gb  tms570ls3137_cstartup.o [1]
__iar_return_from_swi   0x00119368     0x4  Code  Gb  xreturnswi.o [7]
__iar_softfp_floor      0x0010780d          Code  Gb  floor.o [5]
__iar_softfp_floorl     0x0010780d          Code  Gb  floor.o [5]
__iar_vfp_fmod          0x00107908          Code  Gb  fmod.o [5]
__iar_vfp_fmodl         0x00107908          Code  Gb  fmod.o [5]
__iar_zero_init3        0x0011645d    0x40  Code  Gb  zero_init3.o [6]
__low_level_init        0x0010edcc   0x1c0  Code  Gb  low_level_init.o [1]
__vector                0x00100000          Code  Gb  tms570ls3137_cstartup.o [1]
_call_main              0x00117cdc          Code  Gb  cmain.o [6]
_exit                   0x00117d14          Code  Gb  cexit.o [6]
_main                   0x00117ce4          Code  Gb  cmain.o [6]
_scaleEEFclk            0x0010f9ad          Code  Gb  FlashStateMachine.ScaleFclk.obj [3]
_scaleMainFclk          0x0010f99d          Code  Gb  FlashStateMachine.ScaleFclk.obj [3]
app_FaultMgr_ClearDTC   0x00108511    0x48  Code  Gb  app_FaultMgr.o [1]
app_FaultMgr_ReadConfirmedDTCs
                        0x00108559    0xb6  Code  Gb  app_FaultMgr.o [1]
app_FaultMgr_fcn        0x001082d1   0x240  Code  Gb  app_FaultMgr.o [1]
app_FaultMgr_initialize
                        0x00108299    0x30  Code  Gb  app_FaultMgr.o [1]
app_FaultMgr_terminate  0x001082c9     0x8  Code  Gb  app_FaultMgr.o [1]
app_Main100msMgr_InitializeDataMapInfo
                        0x0010e5cd    0x44  Code  Gb  app_Main100msMgr_capi.o [1]
app_Main100msMgr_M      0x00119350     0x4  Data  Gb  app_Main100msMgr.o [1]
app_Main100msMgr_M_     0x0800b988    0x30  Data  Gb  app_Main100msMgr.o [1]
app_Main100msMgr_P      0x0800bad8     0x8  Data  Gb  app_Main100msMgr_data.o [1]
app_Main100msMgr_fcn    0x0010893d     0xc  Code  Gb  app_Main100msMgr.o [1]
app_Main100msMgr_initialize
                        0x00108949    0x28  Code  Gb  app_Main100msMgr.o [1]
app_Main100msMgr_terminate
                        0x00108979     0x2  Code  Gb  app_Main100msMgr.o [1]
app_Main10msMgr_ANLG_ReadSignal
                        0x00100041    0x44  Code  Gb  app_Main10msMgr.o [1]
app_Main10msMgr_ANLG_ReadSignal1
                        0x00100085    0x44  Code  Gb  app_Main10msMgr.o [1]
app_Main10msMgr_ANLG_ReadSignal10
                        0x001000c9    0x44  Code  Gb  app_Main10msMgr.o [1]
app_Main10msMgr_ANLG_ReadSignal11
                        0x0010010d    0x44  Code  Gb  app_Main10msMgr.o [1]
app_Main10msMgr_ANLG_ReadSignal12
                        0x00100151    0x44  Code  Gb  app_Main10msMgr.o [1]
app_Main10msMgr_ANLG_ReadSignal13
                        0x00100195    0x44  Code  Gb  app_Main10msMgr.o [1]
app_Main10msMgr_ANLG_ReadSignal14
                        0x001001d9    0x44  Code  Gb  app_Main10msMgr.o [1]
app_Main10msMgr_ANLG_ReadSignal15
                        0x0010021d    0x44  Code  Gb  app_Main10msMgr.o [1]
app_Main10msMgr_ANLG_ReadSignal16
                        0x00100261    0x44  Code  Gb  app_Main10msMgr.o [1]
app_Main10msMgr_ANLG_ReadSignal17
                        0x001002a5    0x44  Code  Gb  app_Main10msMgr.o [1]
app_Main10msMgr_ANLG_ReadSignal18
                        0x001002f1    0x44  Code  Gb  app_Main10msMgr.o [1]
app_Main10msMgr_ANLG_ReadSignal19
                        0x00100335    0x44  Code  Gb  app_Main10msMgr.o [1]
app_Main10msMgr_ANLG_ReadSignal2
                        0x00100379    0x44  Code  Gb  app_Main10msMgr.o [1]
app_Main10msMgr_ANLG_ReadSignal20
                        0x001003bd    0x44  Code  Gb  app_Main10msMgr.o [1]
app_Main10msMgr_ANLG_ReadSignal21
                        0x00100401    0x44  Code  Gb  app_Main10msMgr.o [1]
app_Main10msMgr_ANLG_ReadSignal22
                        0x00100445    0x44  Code  Gb  app_Main10msMgr.o [1]
app_Main10msMgr_ANLG_ReadSignal3
                        0x00100489    0x44  Code  Gb  app_Main10msMgr.o [1]
app_Main10msMgr_ANLG_ReadSignal4
                        0x001004cd    0x44  Code  Gb  app_Main10msMgr.o [1]
app_Main10msMgr_ANLG_ReadSignal5
                        0x00100511    0x44  Code  Gb  app_Main10msMgr.o [1]
app_Main10msMgr_ANLG_ReadSignal6
                        0x00100555    0x44  Code  Gb  app_Main10msMgr.o [1]
app_Main10msMgr_ANLG_ReadSignal7
                        0x001005a1    0x44  Code  Gb  app_Main10msMgr.o [1]
app_Main10msMgr_ANLG_ReadSignal8
                        0x001005e5    0x44  Code  Gb  app_Main10msMgr.o [1]
app_Main10msMgr_ANLG_ReadSignal9
                        0x00100629    0x44  Code  Gb  app_Main10msMgr.o [1]
app_Main10msMgr_B       0x0800b678   0x230  Data  Gb  app_Main10msMgr.o [1]
app_Main10msMgr_COM_WriteSignal
                        0x0010066d    0x2e  Code  Gb  app_Main10msMgr.o [1]
app_Main10msMgr_COM_WriteSignal50
                        0x0010069d    0x2e  Code  Gb  app_Main10msMgr.o [1]
app_Main10msMgr_COM_WriteSignal52
                        0x001006cd    0x2e  Code  Gb  app_Main10msMgr.o [1]
app_Main10msMgr_COM_WriteSignal53
                        0x001006fd    0x26  Code  Gb  app_Main10msMgr.o [1]
app_Main10msMgr_DW      0x0800ba78    0x20  Data  Gb  app_Main10msMgr.o [1]
app_Main10msMgr_IO_ReadDigitalInput
                        0x00100725    0x6e  Code  Gb  app_Main10msMgr.o [1]
app_Main10msMgr_IO_ReadDigitalInput1
                        0x00100795    0x6c  Code  Gb  app_Main10msMgr.o [1]
app_Main10msMgr_IO_ReadDigitalInput10
                        0x00100809    0x6c  Code  Gb  app_Main10msMgr.o [1]
app_Main10msMgr_IO_ReadDigitalInput11
                        0x00100875    0x6c  Code  Gb  app_Main10msMgr.o [1]
app_Main10msMgr_IO_ReadDigitalInput12
                        0x001008e1    0x6c  Code  Gb  app_Main10msMgr.o [1]
app_Main10msMgr_IO_ReadDigitalInput13
                        0x0010094d    0x6c  Code  Gb  app_Main10msMgr.o [1]
app_Main10msMgr_IO_ReadDigitalInput14
                        0x001009b9    0x6c  Code  Gb  app_Main10msMgr.o [1]
app_Main10msMgr_IO_ReadDigitalInput15
                        0x00100a25    0x6c  Code  Gb  app_Main10msMgr.o [1]
app_Main10msMgr_IO_ReadDigitalInput16
                        0x00100a99    0x6c  Code  Gb  app_Main10msMgr.o [1]
app_Main10msMgr_IO_ReadDigitalInput17
                        0x00100b09    0x6e  Code  Gb  app_Main10msMgr.o [1]
app_Main10msMgr_IO_ReadDigitalInput18
                        0x00100b79    0x6e  Code  Gb  app_Main10msMgr.o [1]
app_Main10msMgr_IO_ReadDigitalInput2
                        0x00100be9    0x6e  Code  Gb  app_Main10msMgr.o [1]
app_Main10msMgr_IO_ReadDigitalInput3
                        0x00100c59    0x6e  Code  Gb  app_Main10msMgr.o [1]
app_Main10msMgr_IO_ReadDigitalInput4
                        0x00100cc9    0x6e  Code  Gb  app_Main10msMgr.o [1]
app_Main10msMgr_IO_ReadDigitalInput5
                        0x00100d41    0x6e  Code  Gb  app_Main10msMgr.o [1]
app_Main10msMgr_IO_ReadDigitalInput6
                        0x00100db1    0x6e  Code  Gb  app_Main10msMgr.o [1]
app_Main10msMgr_IO_ReadDigitalInput7
                        0x00100e25    0x6e  Code  Gb  app_Main10msMgr.o [1]
app_Main10msMgr_IO_ReadDigitalInput8
                        0x00100e95    0x6e  Code  Gb  app_Main10msMgr.o [1]
app_Main10msMgr_IO_ReadDigitalInput9
                        0x00100f05    0x6c  Code  Gb  app_Main10msMgr.o [1]
app_Main10msMgr_IO_ReadPwm
                        0x00100f71    0x6c  Code  Gb  app_Main10msMgr.o [1]
app_Main10msMgr_IO_ReadPwm1
                        0x00100fe5    0x6c  Code  Gb  app_Main10msMgr.o [1]
app_Main10msMgr_IO_ReadPwm2
                        0x00101051    0x6c  Code  Gb  app_Main10msMgr.o [1]
app_Main10msMgr_IO_SetPwm
                        0x001010bd    0x4a  Code  Gb  app_Main10msMgr.o [1]
app_Main10msMgr_IO_SetPwm2
                        0x00101109    0x4a  Code  Gb  app_Main10msMgr.o [1]
app_Main10msMgr_IO_SetPwm3
                        0x00101155    0x4a  Code  Gb  app_Main10msMgr.o [1]
app_Main10msMgr_IO_SetPwm4
                        0x001011a1    0x4a  Code  Gb  app_Main10msMgr.o [1]
app_Main10msMgr_IO_SetPwm5
                        0x001011f1    0x42  Code  Gb  app_Main10msMgr.o [1]
app_Main10msMgr_IO_SetPwm6
                        0x00101235    0x4a  Code  Gb  app_Main10msMgr.o [1]
app_Main10msMgr_IO_WriteDigitalOutput
                        0x00101281    0x58  Code  Gb  app_Main10msMgr.o [1]
app_Main10msMgr_IO_WriteDigitalOutput10
                        0x001012e5    0x58  Code  Gb  app_Main10msMgr.o [1]
app_Main10msMgr_IO_WriteDigitalOutput11
                        0x0010133d    0x54  Code  Gb  app_Main10msMgr.o [1]
app_Main10msMgr_IO_WriteDigitalOutput12
                        0x00101391    0x54  Code  Gb  app_Main10msMgr.o [1]
app_Main10msMgr_IO_WriteDigitalOutput13
                        0x001013e5    0x54  Code  Gb  app_Main10msMgr.o [1]
app_Main10msMgr_IO_WriteDigitalOutput14
                        0x00101439    0x54  Code  Gb  app_Main10msMgr.o [1]
app_Main10msMgr_IO_WriteDigitalOutput15
                        0x0010148d    0x54  Code  Gb  app_Main10msMgr.o [1]
app_Main10msMgr_IO_WriteDigitalOutput16
                        0x001014e1    0x54  Code  Gb  app_Main10msMgr.o [1]
app_Main10msMgr_IO_WriteDigitalOutput2
                        0x0010178d    0x6a  Code  Gb  app_Main10msMgr.o [1]
app_Main10msMgr_IO_WriteDigitalOutput3
                        0x00101535    0x54  Code  Gb  app_Main10msMgr.o [1]
app_Main10msMgr_IO_WriteDigitalOutput4
                        0x00101589    0x54  Code  Gb  app_Main10msMgr.o [1]
app_Main10msMgr_IO_WriteDigitalOutput5
                        0x001015dd    0x54  Code  Gb  app_Main10msMgr.o [1]
app_Main10msMgr_IO_WriteDigitalOutput6
                        0x00101639    0x54  Code  Gb  app_Main10msMgr.o [1]
app_Main10msMgr_IO_WriteDigitalOutput7
                        0x0010168d    0x54  Code  Gb  app_Main10msMgr.o [1]
app_Main10msMgr_IO_WriteDigitalOutput8
                        0x001016e5    0x54  Code  Gb  app_Main10msMgr.o [1]
app_Main10msMgr_IO_WriteDigitalOutput9
                        0x00101739    0x54  Code  Gb  app_Main10msMgr.o [1]
app_Main10msMgr_InitializeDataMapInfo
                        0x00107b41    0x44  Code  Gb  app_Main10msMgr_capi.o [1]
app_Main10msMgr_M       0x00119354     0x4  Data  Gb  app_Main10msMgr.o [1]
app_Main10msMgr_M_      0x0800ba48    0x2c  Data  Gb  app_Main10msMgr.o [1]
app_Main10msMgr_P       0x08000000   0x5d8  Data  Gb  app_Main10msMgr_data.o [1]
app_Main10msMgr_fcn     0x0010180d   0xcd8  Code  Gb  app_Main10msMgr.o [1]
app_Main10msMgr_initialize
                        0x00102511   0x4c0  Code  Gb  app_Main10msMgr.o [1]
app_Main10msMgr_terminate
                        0x00102ab1     0x2  Code  Gb  app_Main10msMgr.o [1]
app_Main1msMgr_InitializeDataMapInfo
                        0x0010e525    0x44  Code  Gb  app_Main1msMgr_capi.o [1]
app_Main1msMgr_M        0x00119358     0x4  Data  Gb  app_Main1msMgr.o [1]
app_Main1msMgr_M_       0x0800b9b8    0x30  Data  Gb  app_Main1msMgr.o [1]
app_Main1msMgr_P        0x0800b8a8    0xa0  Data  Gb  app_Main1msMgr_data.o [1]
app_Main1msMgr_fcn      0x0010870d    0xbe  Code  Gb  app_Main1msMgr.o [1]
app_Main1msMgr_initialize
                        0x001087cb   0x124  Code  Gb  app_Main1msMgr.o [1]
app_Main1msMgr_terminate
                        0x001088f9     0x2  Code  Gb  app_Main1msMgr.o [1]
app_Main50msMgr_InitializeDataMapInfo
                        0x0010e579    0x44  Code  Gb  app_Main50msMgr_capi.o [1]
app_Main50msMgr_M       0x0011935c     0x4  Data  Gb  app_Main50msMgr.o [1]
app_Main50msMgr_M_      0x0800b9e8    0x30  Data  Gb  app_Main50msMgr.o [1]
app_Main50msMgr_P       0x0800bae0     0x8  Data  Gb  app_Main50msMgr_data.o [1]
app_Main50msMgr_fcn     0x001088fd     0xc  Code  Gb  app_Main50msMgr.o [1]
app_Main50msMgr_initialize
                        0x00108909    0x28  Code  Gb  app_Main50msMgr.o [1]
app_Main50msMgr_terminate
                        0x00108939     0x2  Code  Gb  app_Main50msMgr.o [1]
bFirstRun$1             0x08006c77     0x1  Data  Lc  FlashStateMachine.SetActiveBank.obj [3]
exit                    0x00117cfd     0x4  Code  Gb  exit.o [4]
floor                   0x00107809          Code  Gb  floor.o [5]
floorl                  0x00107809          Code  Gb  floor.o [5]
fmod                    0x00107910          Code  Gb  fmod.o [5]
fmodl                   0x00107910          Code  Gb  fmod.o [5]
local_APP_DIAG_u8AppValidCheck
                        0x0011231d    0x1c  Code  Gb  app_diag_gf.o [1]
local_APP_DIAG_u8NonEmptyReceivedFrameElements
                        0x00111dad    0x2e  Code  Gb  app_diag_gf.o [1]
local_APP_DIAG_u8SingleFrameMessageLengthOrInvalidFormatErrorCheck
                        0x00111ddb    0xa6  Code  Gb  app_diag_gf.o [1]
local_APP_DIAG_vdAppValidSet
                        0x001122c5    0x56  Code  Gb  app_diag_gf.o [1]
local_APP_DIAG_vdClearDtcReadServic
                        0x00111fcf    0x3a  Code  Gb  app_diag_gf.o [1]
local_APP_DIAG_vdClearReceivingVariables
                        0x00111f6b    0x64  Code  Gb  app_diag_gf.o [1]
local_APP_DIAG_vdClear_Diagnostic
                        0x00111653    0x5a  Code  Gb  app_diag.o [1]
local_APP_DIAG_vdDefaultEcuModeClear
                        0x0011227d    0x48  Code  Gb  app_diag_gf.o [1]
local_APP_DIAG_vdDefaultEcuModeSet
                        0x001121f1    0x60  Code  Gb  app_diag_gf.o [1]
local_APP_DIAG_vdDiagHeartBeat
                        0x00112465     0x2  Code  Gb  app_diag_gf.o [1]
local_APP_DIAG_vdDiag_Session_Control
                        0x00110093   0x358  Code  Gb  app_diag.o [1]
local_APP_DIAG_vdECU_Reset
                        0x001103eb    0x38  Code  Gb  app_diag.o [1]
local_APP_DIAG_vdFramePositiveResponseWithFullArrayBytes
                        0x00112009    0x26  Code  Gb  app_diag_gf.o [1]
local_APP_DIAG_vdIO_Control_Identifier
                        0x001104a9   0xa0c  Code  Gb  app_diag.o [1]
local_APP_DIAG_vdMainStateMachine
                        0x0010fcd3   0x3c0  Code  Gb  app_diag.o [1]
local_APP_DIAG_vdMemory_ReadByAddress
                        0x001114c5    0xb8  Code  Gb  app_diag.o [1]
local_APP_DIAG_vdMemory_WriteByAddress
                        0x0011136d   0x158  Code  Gb  app_diag.o [1]
local_APP_DIAG_vdProgRequestClear
                        0x00112395    0x4e  Code  Gb  app_diag_gf.o [1]
local_APP_DIAG_vdProgRequestSet
                        0x0011233d    0x56  Code  Gb  app_diag_gf.o [1]
local_APP_DIAG_vdReadDataByIdentifierDataAdjustment
                        0x0011157d    0xd6  Code  Gb  app_diag.o [1]
local_APP_DIAG_vdRead_DTC
                        0x001116bd   0x224  Code  Gb  app_diag.o [1]
local_APP_DIAG_vdRead_DataByIdentifier
                        0x00110f89   0x3e4  Code  Gb  app_diag.o [1]
local_APP_DIAG_vdResetAllGlobalVariables
                        0x00111e81    0xea  Code  Gb  app_diag_gf.o [1]
local_APP_DIAG_vdServeDiagRequest
                        0x0010fc3d    0x96  Code  Gb  app_diag.o [1]
local_APP_DIAG_vdShutDownAndResetWithAppValidModification
                        0x00112467     0xc  Code  Gb  app_diag_gf.o [1]
local_APP_DIAG_vdSingleFrameNegativeResponse
                        0x00112191    0x5e  Code  Gb  app_diag_gf.o [1]
local_APP_DIAG_vdSingleFramePositiveResponse
                        0x001120dd    0xb4  Code  Gb  app_diag_gf.o [1]
local_APP_DIAG_vdSingleFramePositiveResponseWithoutSubfunction
                        0x0011202f    0xae  Code  Gb  app_diag_gf.o [1]
local_APP_DIAG_vdTester_Present
                        0x00110423    0x46  Code  Gb  app_diag.o [1]
local_APP_DIAG_vdWrite_DataByIdentifier
                        0x00110eb5    0xc4  Code  Gb  app_diag.o [1]
local_ECU_COM_vdDataConversion
                        0x00105819   0x3ce  Code  Gb  ecu_com.o [1]
local_ECU_COM_vdPack    0x00105bed   0xba6  Code  Gb  ecu_com.o [1]
local_ECU_COM_vdPostPack
                        0x00106793    0x92  Code  Gb  ecu_com.o [1]
local_ECU_COM_vdPreUnpack
                        0x00104b0f    0xb2  Code  Gb  ecu_com.o [1]
local_ECU_COM_vdUnpack  0x00104bc5   0xc42  Code  Gb  ecu_com.o [1]
local_ECU_DIAG_vdApplicationCallback
                        0x00111d45    0x4c  Code  Gb  ecu_diag.o [1]
local_ECU_DIAG_vdResetTimerOverFlowFlag
                        0x00111d35    0x10  Code  Gb  ecu_diag.o [1]
local_ECU_DIAG_vdSetTimerOverFlowFlag
                        0x00111d25    0x10  Code  Gb  ecu_diag.o [1]
local_ECU_IO_POUT_vdInitialize
                        0x00107783    0x50  Code  Gb  ecu_io.o [1]
local_ECU_IO_eExpConfig
                        0x001073b1    0xba  Code  Gb  ecu_io.o [1]
local_ECU_IO_eExpReadAllReg
                        0x00107331    0x80  Code  Gb  ecu_io.o [1]
local_ECU_IO_eExpReadInputs
                        0x001075c1    0x7a  Code  Gb  ecu_io.o [1]
local_ECU_IO_eSendReceiveFrame
                        0x0010714f    0xae  Code  Gb  ecu_io.o [1]
local_ECU_IO_vdDioMgr   0x001071fd    0x52  Code  Gb  ecu_io.o [1]
local_ECU_IO_vdExpDataChangeCallback
                        0x0010775b    0x28  Code  Gb  ecu_io.o [1]
local_ECU_IO_vdExpDecodeInputs
                        0x00107641    0xb6  Code  Gb  ecu_io.o [1]
local_ECU_IO_vdExpMgr   0x0010724f    0xe2  Code  Gb  ecu_io.o [1]
local_ECU_IO_vdExpSetInterrupts
                        0x001074f9    0xc8  Code  Gb  ecu_io.o [1]
local_ECU_IO_vdExpSetTopology
                        0x0010746b    0x7c  Code  Gb  ecu_io.o [1]
local_ECU_IO_vdReadSpiDataCallback
                        0x001076fd    0x5e  Code  Gb  ecu_io.o [1]
local_ECU_MEM_INT_vdDeInit
                        0x0010e3fb   0x114  Code  Gb  ecu_mem.o [1]
local_ECU_MEM_INT_vdInit
                        0x0010e337    0xc4  Code  Gb  ecu_mem.o [1]
local_ECU_PWM_vdPwmInputMgr
                        0x00106f5d    0x46  Code  Gb  ecu_io.o [1]
local_ECU_SERIAL_vdResetBuffer
                        0x00114087    0x4a  Code  Gb  ecu_serial.o [1]
local_ECU_SERIAL_vdUartRxCallback
                        0x001140d1   0xa30  Code  Gb  ecu_serial.o [1]
local_OS_u32GetSystemTickTrigVal
                        0x0010ea47     0xe  Code  Gb  os.o [1]
local_OS_vdAddTask      0x0010ea55    0x82  Code  Gb  os.o [1]
local_OS_vdTrigger      0x0010ea1d    0x2a  Code  Gb  os.o [1]
local_UC_CAN_eCheckMsgObjForNewData
                        0x0010a933    0xf8  Code  Gb  uc_can.o [1]
local_UC_CAN_eGetMsgIndexFromObjId
                        0x0010ac75    0xb4  Code  Gb  uc_can.o [1]
local_UC_CAN_eInterruptHandler
                        0x0010ae63   0x14a  Code  Gb  uc_can.o [1]
local_UC_CAN_eResetMsgObjInt
                        0x0010ad29   0x13a  Code  Gb  uc_can.o [1]
local_UC_CAN_eSetMsgObjIntLine
                        0x0010aa2b   0x24a  Code  Gb  uc_can.o [1]
local_UC_DIO_eInputInterruptHandler
                        0x0010d0db    0x48  Code  Gb  uc_dio.o [1]
local_UC_DIO_ePinConfigure
                        0x0010d06d    0x6e  Code  Gb  uc_dio.o [1]
local_UC_PWM_PIN_ReadFrequencyDutyCycle
                        0x0010da21   0x47e  Code  Gb  uc_pwm.o [1]
local_UC_SPI_eActiveDeviceSendSpiFrameSync
                        0x0010c75d   0x3a2  Code  Gb  uc_spi.o [1]
local_UC_SPI_eReceiveDataSync
                        0x0010c671    0xe4  Code  Gb  uc_spi.o [1]
local_UC_SPI_eRxInterruptHandler
                        0x0010caff    0xee  Code  Gb  uc_spi.o [1]
local_UC_SPI_eTxInterruptHandler
                        0x0010cbed    0x58  Code  Gb  uc_spi.o [1]
local_UC_UART_vdInterruptHandlerRx
                        0x00112e9d   0x114  Code  Gb  uc_uart.o [1]
local_UC_UART_vdInterruptHandlerTx
                        0x00112fb1    0x48  Code  Gb  uc_uart.o [1]
local_UC_UART_vdUpdateBaudRate
                        0x00112ff9    0x32  Code  Gb  uc_uart.o [1]
local_vdFaultLedsControl
                        0x0010866f    0x8c  Code  Gb  app_FaultMgr.o [1]
local_vdSaveDtcsToRAM   0x0010860f    0x60  Code  Gb  app_FaultMgr.o [1]
main                    0x001152e1   0x268  Code  Gb  main.o [1]
mmiStatic               0x0800068c    0x68  Data  Lc  app_Main100msMgr_capi.o [1]
mmiStatic               0x08000b10    0x68  Data  Lc  app_Main10msMgr_capi.o [1]
mmiStatic               0x08000bc8    0x68  Data  Lc  app_Main1msMgr_capi.o [1]
mmiStatic               0x08000c34    0x68  Data  Lc  app_Main50msMgr_capi.o [1]
round                   0x0010e85d    0x4a  Code  Gb  round.o [5]
rtBlockParameters       0x00117d24    0x28  Data  Lc  app_Main100msMgr_capi.o [1]
rtBlockParameters       0x00113108   0xf00  Data  Lc  app_Main10msMgr_capi.o [1]
rtBlockParameters       0x00115a24   0x1a4  Data  Lc  app_Main1msMgr_capi.o [1]
rtBlockParameters       0x00118274    0x28  Data  Lc  app_Main50msMgr_capi.o [1]
rtBlockSignals          0x00118e64    0x1c  Data  Lc  app_Main100msMgr_capi.o [1]
rtBlockSignals          0x00114b1c   0x7c4  Data  Lc  app_Main10msMgr_capi.o [1]
rtBlockSignals          0x00118f7c    0x1c  Data  Lc  app_Main1msMgr_capi.o [1]
rtBlockSignals          0x00118fd0    0x1c  Data  Lc  app_Main50msMgr_capi.o [1]
rtBlockStates           0x00117d4c    0x28  Data  Lc  app_Main100msMgr_capi.o [1]
rtBlockStates           0x00115c90    0x78  Data  Lc  app_Main10msMgr_capi.o [1]
rtBlockStates           0x0011824c    0x28  Data  Lc  app_Main1msMgr_capi.o [1]
rtBlockStates           0x0011829c    0x28  Data  Lc  app_Main50msMgr_capi.o [1]
rtDataAddrMap           0x08000688     0x4  Data  Lc  app_Main100msMgr_capi.o [1]
rtDataAddrMap           0x080006f4   0x41c  Data  Lc  app_Main10msMgr_capi.o [1]
rtDataAddrMap           0x08000b78    0x50  Data  Lc  app_Main1msMgr_capi.o [1]
rtDataAddrMap           0x08000c30     0x4  Data  Lc  app_Main50msMgr_capi.o [1]
rtDataTypeMap           0x00119024    0x14  Data  Lc  app_Main100msMgr_capi.o [1]
rtDataTypeMap           0x00115d80    0x64  Data  Lc  app_Main10msMgr_capi.o [1]
rtDataTypeMap           0x0011907c    0x14  Data  Lc  app_Main1msMgr_capi.o [1]
rtDataTypeMap           0x00119090    0x14  Data  Lc  app_Main50msMgr_capi.o [1]
rtDimensionArray        0x001192ac     0x8  Data  Lc  app_Main100msMgr_capi.o [1]
rtDimensionArray        0x00119304     0x8  Data  Lc  app_Main10msMgr_capi.o [1]
rtDimensionArray        0x00119324     0x8  Data  Lc  app_Main1msMgr_capi.o [1]
rtDimensionArray        0x00119344     0x8  Data  Lc  app_Main50msMgr_capi.o [1]
rtDimensionMap          0x001190d4    0x10  Data  Lc  app_Main100msMgr_capi.o [1]
rtDimensionMap          0x00119134    0x10  Data  Lc  app_Main10msMgr_capi.o [1]
rtDimensionMap          0x00119174    0x10  Data  Lc  app_Main1msMgr_capi.o [1]
rtDimensionMap          0x001191b4    0x10  Data  Lc  app_Main50msMgr_capi.o [1]
rtElementMap            0x001190c4    0x10  Data  Lc  app_Main100msMgr_capi.o [1]
rtElementMap            0x00119124    0x10  Data  Lc  app_Main10msMgr_capi.o [1]
rtElementMap            0x00119164    0x10  Data  Lc  app_Main1msMgr_capi.o [1]
rtElementMap            0x001191a4    0x10  Data  Lc  app_Main50msMgr_capi.o [1]
rtFixPtMap              0x001191c4     0xc  Data  Lc  app_Main100msMgr_capi.o [1]
rtFixPtMap              0x00119050    0x18  Data  Lc  app_Main10msMgr_capi.o [1]
rtFixPtMap              0x00119218     0xc  Data  Lc  app_Main1msMgr_capi.o [1]
rtFixPtMap              0x00119230     0xc  Data  Lc  app_Main50msMgr_capi.o [1]
rtGetInf                0x0010e02d    0x3c  Code  Gb  rtGetInf.o [1]
rtGetInfF               0x0010e069    0x10  Code  Gb  rtGetInf.o [1]
rtGetMinusInf           0x0010e079    0x3c  Code  Gb  rtGetInf.o [1]
rtGetMinusInfF          0x0010e0b5     0xe  Code  Gb  rtGetInf.o [1]
rtGetNaN                0x0010dfc9    0x3c  Code  Gb  rtGetNaN.o [1]
rtGetNaNF               0x0010e005    0x14  Code  Gb  rtGetNaN.o [1]
rtInf                   0x0800bae8     0x8  Data  Gb  rt_nonfinite.o [1]
rtInfF                  0x0800bb30     0x4  Data  Gb  rt_nonfinite.o [1]
rtIsInf                 0x001078b3    0x2a  Code  Gb  rt_nonfinite.o [1]
rtIsNaN                 0x001078f5    0x14  Code  Gb  rt_nonfinite.o [1]
rtMinusInf              0x0800baf0     0x8  Data  Gb  rt_nonfinite.o [1]
rtMinusInfF             0x0800bb34     0x4  Data  Gb  rt_nonfinite.o [1]
rtModelParameters       0x001190b4    0x10  Data  Lc  app_Main100msMgr_capi.o [1]
rtModelParameters       0x00119114    0x10  Data  Lc  app_Main10msMgr_capi.o [1]
rtModelParameters       0x00119154    0x10  Data  Lc  app_Main1msMgr_capi.o [1]
rtModelParameters       0x00119194    0x10  Data  Lc  app_Main50msMgr_capi.o [1]
rtNaN                   0x0800baf8     0x8  Data  Gb  rt_nonfinite.o [1]
rtNaNF                  0x0800bb38     0x4  Data  Gb  rt_nonfinite.o [1]
rtRootInputs            0x00118e80    0x1c  Data  Lc  app_Main100msMgr_capi.o [1]
rtRootInputs            0x00118f44    0x1c  Data  Lc  app_Main10msMgr_capi.o [1]
rtRootInputs            0x00118f98    0x1c  Data  Lc  app_Main1msMgr_capi.o [1]
rtRootInputs            0x00118fec    0x1c  Data  Lc  app_Main50msMgr_capi.o [1]
rtRootOutputs           0x00118e9c    0x1c  Data  Lc  app_Main100msMgr_capi.o [1]
rtRootOutputs           0x00118f60    0x1c  Data  Lc  app_Main10msMgr_capi.o [1]
rtRootOutputs           0x00118fb4    0x1c  Data  Lc  app_Main1msMgr_capi.o [1]
rtRootOutputs           0x00119008    0x1c  Data  Lc  app_Main50msMgr_capi.o [1]
rtSampleTimeMap         0x001191d0     0xc  Data  Lc  app_Main100msMgr_capi.o [1]
rtSampleTimeMap         0x00119200     0xc  Data  Lc  app_Main10msMgr_capi.o [1]
rtSampleTimeMap         0x00119224     0xc  Data  Lc  app_Main1msMgr_capi.o [1]
rtSampleTimeMap         0x0011923c     0xc  Data  Lc  app_Main50msMgr_capi.o [1]
rtVarDimsAddrMap        0x0800bb04     0x4  Data  Lc  app_Main100msMgr_capi.o [1]
rtVarDimsAddrMap        0x0800bb08     0x4  Data  Lc  app_Main10msMgr_capi.o [1]
rtVarDimsAddrMap        0x0800bb0c     0x4  Data  Lc  app_Main1msMgr_capi.o [1]
rtVarDimsAddrMap        0x0800bb10     0x4  Data  Lc  app_Main50msMgr_capi.o [1]
rt_InitInfAndNaN        0x00107871    0x42  Code  Gb  rt_nonfinite.o [1]
rtcapiStoredFloats      0x00119038    0x18  Data  Lc  app_Main10msMgr_capi.o [1]
u8ReadBootFlag          0x0800bb83     0x1  Data  Gb  ecu_mem.o [1]


[1] = D:\VCU_Projects\deVCU_Rev2\JayemCodeReleaseRev2.2\JayemCodeRelease\01_Software\Flash_Debug\Obj
[2] = command line
[3] = F021_API_CortexR4_BE.lib
[4] = dl7Sx_tbn.a
[5] = m7Sx_tbv.a
[6] = rt7Sx_tb.a
[7] = sh7Sxs_b.a

  83 345 bytes of readonly  code memory
       6 bytes of readwrite code memory
  26 931 bytes of readonly  data memory
  48 008 bytes of readwrite data memory (+ 2 612 absolute)

Errors: none
Warnings: none
